Component: ARM Compiler 6.16 Tool: armlink [5dfeaa00]

==============================================================================

Section Cross References

    context_rvds.o(.text) refers to lto-llvm-434951.o(.text.rt_hw_hard_fault_exception) for rt_hw_hard_fault_exception
    context_rvds.o(.text) refers to lto-llvm-434951.o(.bss) for rt_thread_switch_interrupt_flag
    systick_wrapper_ual.o(.text) refers to lto-llvm-434951.o(.text.user_code_insert_to_systick_handler) for user_code_insert_to_systick_handler
    systick_wrapper_ual.o(.text) refers to lto-llvm-434951.o(.text.SysTick_Handler) for $Super$$SysTick_Handler
    startup_stm32f401xe.o(RESET) refers to startup_stm32f401xe.o(STACK) for __initial_sp
    startup_stm32f401xe.o(RESET) refers to startup_stm32f401xe.o(.text) for Reset_Handler
    startup_stm32f401xe.o(RESET) refers to lto-llvm-434951.o(.text.NMI_Handler) for NMI_Handler
    startup_stm32f401xe.o(RESET) refers to context_rvds.o(.text) for HardFault_Handler
    startup_stm32f401xe.o(RESET) refers to lto-llvm-434951.o(.text.MemManage_Handler) for MemManage_Handler
    startup_stm32f401xe.o(RESET) refers to lto-llvm-434951.o(.text.BusFault_Handler) for BusFault_Handler
    startup_stm32f401xe.o(RESET) refers to lto-llvm-434951.o(.text.UsageFault_Handler) for UsageFault_Handler
    startup_stm32f401xe.o(RESET) refers to lto-llvm-434951.o(.text.DebugMon_Handler) for DebugMon_Handler
    startup_stm32f401xe.o(RESET) refers to systick_wrapper_ual.o(.text) for SysTick_Handler
    startup_stm32f401xe.o(RESET) refers to lto-llvm-434951.o(.text.DMA1_Stream5_IRQHandler) for DMA1_Stream5_IRQHandler
    startup_stm32f401xe.o(RESET) refers to lto-llvm-434951.o(.text.DMA1_Stream6_IRQHandler) for DMA1_Stream6_IRQHandler
    startup_stm32f401xe.o(RESET) refers to lto-llvm-434951.o(.text.TIM1_UP_TIM10_IRQHandler) for TIM1_UP_TIM10_IRQHandler
    startup_stm32f401xe.o(RESET) refers to lto-llvm-434951.o(.text.SPI1_IRQHandler) for SPI1_IRQHandler
    startup_stm32f401xe.o(RESET) refers to lto-llvm-434951.o(.text.USART1_IRQHandler) for USART1_IRQHandler
    startup_stm32f401xe.o(RESET) refers to lto-llvm-434951.o(.text.DMA2_Stream0_IRQHandler) for DMA2_Stream0_IRQHandler
    startup_stm32f401xe.o(RESET) refers to lto-llvm-434951.o(.text.DMA2_Stream2_IRQHandler) for DMA2_Stream2_IRQHandler
    startup_stm32f401xe.o(RESET) refers to lto-llvm-434951.o(.text.DMA2_Stream3_IRQHandler) for DMA2_Stream3_IRQHandler
    startup_stm32f401xe.o(RESET) refers to lto-llvm-434951.o(.text.DMA2_Stream7_IRQHandler) for DMA2_Stream7_IRQHandler
    startup_stm32f401xe.o(.text) refers to lto-llvm-434951.o(.text.SystemInit) for SystemInit
    startup_stm32f401xe.o(.text) refers to entry.o(.ARM.Collect$$$$00000000) for __main
    entry.o(.ARM.Collect$$$$00000000) refers (Special) to entry10a.o(.ARM.Collect$$$$0000000D) for __rt_final_cpp
    entry.o(.ARM.Collect$$$$00000000) refers (Special) to entry11a.o(.ARM.Collect$$$$0000000F) for __rt_final_exit
    entry.o(.ARM.Collect$$$$00000000) refers (Special) to entry7b.o(.ARM.Collect$$$$00000008) for _main_clock
    entry.o(.ARM.Collect$$$$00000000) refers (Special) to entry8b.o(.ARM.Collect$$$$0000000A) for _main_cpp_init
    entry.o(.ARM.Collect$$$$00000000) refers (Special) to entry9a.o(.ARM.Collect$$$$0000000B) for _main_init
    entry.o(.ARM.Collect$$$$00000000) refers (Special) to entry5.o(.ARM.Collect$$$$00000004) for _main_scatterload
    entry.o(.ARM.Collect$$$$00000000) refers (Special) to entry2.o(.ARM.Collect$$$$00000001) for _main_stk
    entry2.o(.ARM.Collect$$$$00000001) refers to entry2.o(.ARM.Collect$$$$00002712) for __lit__00000000
    entry2.o(.ARM.Collect$$$$00002712) refers to startup_stm32f401xe.o(STACK) for __initial_sp
    entry2.o(__vectab_stack_and_reset_area) refers to startup_stm32f401xe.o(STACK) for __initial_sp
    entry2.o(__vectab_stack_and_reset_area) refers to entry.o(.ARM.Collect$$$$00000000) for __main
    entry5.o(.ARM.Collect$$$$00000004) refers to init.o(.text) for __scatterload
    entry8a.o(.ARM.Collect$$$$00000009) refers (Weak) to cpp_init.o(.text) for __cpp_initialize__aeabi_
    entry9a.o(.ARM.Collect$$$$0000000B) refers to lto-llvm-434951.o(.text.$Sub$$main) for main
    entry9b.o(.ARM.Collect$$$$0000000C) refers to lto-llvm-434951.o(.text.$Sub$$main) for main
    init.o(.text) refers to entry5.o(.ARM.Collect$$$$00000004) for __main_after_scatterload
    lto-llvm-434951.o(.text.hw_init) refers to lto-llvm-434951.o(.text.HAL_Init) for HAL_Init
    lto-llvm-434951.o(.text.hw_init) refers to lto-llvm-434951.o(.text.SystemClock_Config) for SystemClock_Config
    lto-llvm-434951.o(.text.hw_init) refers to lto-llvm-434951.o(.text.MX_GPIO_Init) for MX_GPIO_Init
    lto-llvm-434951.o(.text.hw_init) refers to lto-llvm-434951.o(.text.MX_DMA_Init) for MX_DMA_Init
    lto-llvm-434951.o(.text.hw_init) refers to lto-llvm-434951.o(.text.MX_SPI1_Init) for MX_SPI1_Init
    lto-llvm-434951.o(.text.hw_init) refers to lto-llvm-434951.o(.text.MX_USART1_UART_Init) for MX_USART1_UART_Init
    lto-llvm-434951.o(.text.hw_init) refers to lto-llvm-434951.o(.text.MX_I2C1_Init) for MX_I2C1_Init
    lto-llvm-434951.o(.text.hw_init) refers to lto-llvm-434951.o(.text.MX_USART2_UART_Init) for MX_USART2_UART_Init
    lto-llvm-434951.o(.text.hw_init) refers to lto-llvm-434951.o(.text.serv_led_sign_hw_init) for serv_led_sign_hw_init
    lto-llvm-434951.o(.text.hw_init) refers to lto-llvm-434951.o(.bss) for usart1
    lto-llvm-434951.o(.text.hw_init) refers to lto-llvm-434951.o(.text.dma_io_construct) for dma_io_construct
    lto-llvm-434951.o(.ARM.exidx.text.hw_init) refers to lto-llvm-434951.o(.text.hw_init) for [Anonymous Symbol]
    lto-llvm-434951.o(.text.SystemClock_Config) refers to memseta.o(.text) for __aeabi_memclr4
    lto-llvm-434951.o(.text.SystemClock_Config) refers to lto-llvm-434951.o(.text.HAL_RCC_OscConfig) for HAL_RCC_OscConfig
    lto-llvm-434951.o(.text.SystemClock_Config) refers to lto-llvm-434951.o(.text.Error_Handler) for Error_Handler
    lto-llvm-434951.o(.text.SystemClock_Config) refers to lto-llvm-434951.o(.text.HAL_RCC_ClockConfig) for HAL_RCC_ClockConfig
    lto-llvm-434951.o(.ARM.exidx.text.SystemClock_Config) refers to lto-llvm-434951.o(.text.SystemClock_Config) for [Anonymous Symbol]
    lto-llvm-434951.o(.text.MX_GPIO_Init) refers to lto-llvm-434951.o(.text.HAL_GPIO_WritePin) for HAL_GPIO_WritePin
    lto-llvm-434951.o(.text.MX_GPIO_Init) refers to lto-llvm-434951.o(.text.HAL_GPIO_Init) for HAL_GPIO_Init
    lto-llvm-434951.o(.ARM.exidx.text.MX_GPIO_Init) refers to lto-llvm-434951.o(.text.MX_GPIO_Init) for [Anonymous Symbol]
    lto-llvm-434951.o(.text.MX_DMA_Init) refers to lto-llvm-434951.o(.text.HAL_NVIC_SetPriority) for HAL_NVIC_SetPriority
    lto-llvm-434951.o(.text.MX_DMA_Init) refers to lto-llvm-434951.o(.text.HAL_NVIC_EnableIRQ) for HAL_NVIC_EnableIRQ
    lto-llvm-434951.o(.ARM.exidx.text.MX_DMA_Init) refers to lto-llvm-434951.o(.text.MX_DMA_Init) for [Anonymous Symbol]
    lto-llvm-434951.o(.text.MX_SPI1_Init) refers to lto-llvm-434951.o(.bss) for hspi1
    lto-llvm-434951.o(.text.MX_SPI1_Init) refers to lto-llvm-434951.o(.text.HAL_SPI_Init) for HAL_SPI_Init
    lto-llvm-434951.o(.text.MX_SPI1_Init) refers to lto-llvm-434951.o(.text.Error_Handler) for Error_Handler
    lto-llvm-434951.o(.ARM.exidx.text.MX_SPI1_Init) refers to lto-llvm-434951.o(.text.MX_SPI1_Init) for [Anonymous Symbol]
    lto-llvm-434951.o(.text.MX_USART1_UART_Init) refers to lto-llvm-434951.o(.bss) for huart1
    lto-llvm-434951.o(.text.MX_USART1_UART_Init) refers to lto-llvm-434951.o(.text.HAL_UART_Init) for HAL_UART_Init
    lto-llvm-434951.o(.text.MX_USART1_UART_Init) refers to lto-llvm-434951.o(.text.Error_Handler) for Error_Handler
    lto-llvm-434951.o(.ARM.exidx.text.MX_USART1_UART_Init) refers to lto-llvm-434951.o(.text.MX_USART1_UART_Init) for [Anonymous Symbol]
    lto-llvm-434951.o(.text.MX_I2C1_Init) refers to lto-llvm-434951.o(.bss) for hi2c1
    lto-llvm-434951.o(.text.MX_I2C1_Init) refers to lto-llvm-434951.o(.text.HAL_I2C_Init) for HAL_I2C_Init
    lto-llvm-434951.o(.text.MX_I2C1_Init) refers to lto-llvm-434951.o(.text.Error_Handler) for Error_Handler
    lto-llvm-434951.o(.ARM.exidx.text.MX_I2C1_Init) refers to lto-llvm-434951.o(.text.MX_I2C1_Init) for [Anonymous Symbol]
    lto-llvm-434951.o(.text.MX_USART2_UART_Init) refers to lto-llvm-434951.o(.bss) for huart2
    lto-llvm-434951.o(.text.MX_USART2_UART_Init) refers to lto-llvm-434951.o(.text.HAL_UART_Init) for HAL_UART_Init
    lto-llvm-434951.o(.text.MX_USART2_UART_Init) refers to lto-llvm-434951.o(.text.Error_Handler) for Error_Handler
    lto-llvm-434951.o(.ARM.exidx.text.MX_USART2_UART_Init) refers to lto-llvm-434951.o(.text.MX_USART2_UART_Init) for [Anonymous Symbol]
    lto-llvm-434951.o(.ARM.exidx.text.Error_Handler) refers to lto-llvm-434951.o(.text.Error_Handler) for [Anonymous Symbol]
    lto-llvm-434951.o(.text.main) refers to lto-llvm-434951.o(.text.serv_init) for serv_init
    lto-llvm-434951.o(.text.main) refers to lto-llvm-434951.o(.text.app_main_control_init) for app_main_control_init
    lto-llvm-434951.o(.ARM.exidx.text.main) refers to lto-llvm-434951.o(.text.main) for [Anonymous Symbol]
    lto-llvm-434951.o(.text.HAL_TIM_PeriodElapsedCallback) refers to lto-llvm-434951.o(.text.HAL_IncTick) for HAL_IncTick
    lto-llvm-434951.o(.ARM.exidx.text.HAL_TIM_PeriodElapsedCallback) refers to lto-llvm-434951.o(.text.HAL_TIM_PeriodElapsedCallback) for [Anonymous Symbol]
    lto-llvm-434951.o(.ARM.exidx.text.HAL_MspInit) refers to lto-llvm-434951.o(.text.HAL_MspInit) for [Anonymous Symbol]
    lto-llvm-434951.o(.text.HAL_I2C_MspInit) refers to lto-llvm-434951.o(.text.HAL_GPIO_Init) for HAL_GPIO_Init
    lto-llvm-434951.o(.ARM.exidx.text.HAL_I2C_MspInit) refers to lto-llvm-434951.o(.text.HAL_I2C_MspInit) for [Anonymous Symbol]
    lto-llvm-434951.o(.text.HAL_SPI_MspInit) refers to lto-llvm-434951.o(.text.HAL_GPIO_Init) for HAL_GPIO_Init
    lto-llvm-434951.o(.text.HAL_SPI_MspInit) refers to lto-llvm-434951.o(.bss) for hdma_spi1_rx
    lto-llvm-434951.o(.text.HAL_SPI_MspInit) refers to lto-llvm-434951.o(.text.HAL_DMA_Init) for HAL_DMA_Init
    lto-llvm-434951.o(.text.HAL_SPI_MspInit) refers to lto-llvm-434951.o(.text.Error_Handler) for Error_Handler
    lto-llvm-434951.o(.text.HAL_SPI_MspInit) refers to lto-llvm-434951.o(.text.HAL_NVIC_SetPriority) for HAL_NVIC_SetPriority
    lto-llvm-434951.o(.text.HAL_SPI_MspInit) refers to lto-llvm-434951.o(.text.HAL_NVIC_EnableIRQ) for HAL_NVIC_EnableIRQ
    lto-llvm-434951.o(.ARM.exidx.text.HAL_SPI_MspInit) refers to lto-llvm-434951.o(.text.HAL_SPI_MspInit) for [Anonymous Symbol]
    lto-llvm-434951.o(.text.HAL_UART_MspInit) refers to lto-llvm-434951.o(.text.HAL_GPIO_Init) for HAL_GPIO_Init
    lto-llvm-434951.o(.text.HAL_UART_MspInit) refers to lto-llvm-434951.o(.bss) for hdma_usart1_tx
    lto-llvm-434951.o(.text.HAL_UART_MspInit) refers to lto-llvm-434951.o(.text.HAL_DMA_Init) for HAL_DMA_Init
    lto-llvm-434951.o(.text.HAL_UART_MspInit) refers to lto-llvm-434951.o(.text.Error_Handler) for Error_Handler
    lto-llvm-434951.o(.text.HAL_UART_MspInit) refers to lto-llvm-434951.o(.text.HAL_NVIC_SetPriority) for HAL_NVIC_SetPriority
    lto-llvm-434951.o(.text.HAL_UART_MspInit) refers to lto-llvm-434951.o(.text.HAL_NVIC_EnableIRQ) for HAL_NVIC_EnableIRQ
    lto-llvm-434951.o(.ARM.exidx.text.HAL_UART_MspInit) refers to lto-llvm-434951.o(.text.HAL_UART_MspInit) for [Anonymous Symbol]
    lto-llvm-434951.o(.text.HAL_InitTick) refers to lto-llvm-434951.o(.text.HAL_NVIC_SetPriority) for HAL_NVIC_SetPriority
    lto-llvm-434951.o(.text.HAL_InitTick) refers to lto-llvm-434951.o(.text.HAL_NVIC_EnableIRQ) for HAL_NVIC_EnableIRQ
    lto-llvm-434951.o(.text.HAL_InitTick) refers to lto-llvm-434951.o(.text.HAL_RCC_GetClockConfig) for HAL_RCC_GetClockConfig
    lto-llvm-434951.o(.text.HAL_InitTick) refers to lto-llvm-434951.o(.text.HAL_RCC_GetPCLK2Freq) for HAL_RCC_GetPCLK2Freq
    lto-llvm-434951.o(.text.HAL_InitTick) refers to lto-llvm-434951.o(.bss) for htim1
    lto-llvm-434951.o(.text.HAL_InitTick) refers to lto-llvm-434951.o(.text.HAL_TIM_Base_Init) for HAL_TIM_Base_Init
    lto-llvm-434951.o(.text.HAL_InitTick) refers to lto-llvm-434951.o(.text.HAL_TIM_Base_Start_IT) for HAL_TIM_Base_Start_IT
    lto-llvm-434951.o(.ARM.exidx.text.HAL_InitTick) refers to lto-llvm-434951.o(.text.HAL_InitTick) for [Anonymous Symbol]
    lto-llvm-434951.o(.ARM.exidx.text.NMI_Handler) refers to lto-llvm-434951.o(.text.NMI_Handler) for [Anonymous Symbol]
    lto-llvm-434951.o(.ARM.exidx.text.MemManage_Handler) refers to lto-llvm-434951.o(.text.MemManage_Handler) for [Anonymous Symbol]
    lto-llvm-434951.o(.ARM.exidx.text.BusFault_Handler) refers to lto-llvm-434951.o(.text.BusFault_Handler) for [Anonymous Symbol]
    lto-llvm-434951.o(.ARM.exidx.text.UsageFault_Handler) refers to lto-llvm-434951.o(.text.UsageFault_Handler) for [Anonymous Symbol]
    lto-llvm-434951.o(.ARM.exidx.text.DebugMon_Handler) refers to lto-llvm-434951.o(.text.DebugMon_Handler) for [Anonymous Symbol]
    lto-llvm-434951.o(.text.DMA1_Stream5_IRQHandler) refers to lto-llvm-434951.o(.bss) for hdma_usart2_rx
    lto-llvm-434951.o(.text.DMA1_Stream5_IRQHandler) refers to lto-llvm-434951.o(.text.HAL_DMA_IRQHandler) for HAL_DMA_IRQHandler
    lto-llvm-434951.o(.ARM.exidx.text.DMA1_Stream5_IRQHandler) refers to lto-llvm-434951.o(.text.DMA1_Stream5_IRQHandler) for [Anonymous Symbol]
    lto-llvm-434951.o(.text.DMA1_Stream6_IRQHandler) refers to lto-llvm-434951.o(.bss) for hdma_usart2_tx
    lto-llvm-434951.o(.text.DMA1_Stream6_IRQHandler) refers to lto-llvm-434951.o(.text.HAL_DMA_IRQHandler) for HAL_DMA_IRQHandler
    lto-llvm-434951.o(.ARM.exidx.text.DMA1_Stream6_IRQHandler) refers to lto-llvm-434951.o(.text.DMA1_Stream6_IRQHandler) for [Anonymous Symbol]
    lto-llvm-434951.o(.text.TIM1_UP_TIM10_IRQHandler) refers to lto-llvm-434951.o(.bss) for htim1
    lto-llvm-434951.o(.text.TIM1_UP_TIM10_IRQHandler) refers to lto-llvm-434951.o(.text.HAL_TIM_IRQHandler) for HAL_TIM_IRQHandler
    lto-llvm-434951.o(.ARM.exidx.text.TIM1_UP_TIM10_IRQHandler) refers to lto-llvm-434951.o(.text.TIM1_UP_TIM10_IRQHandler) for [Anonymous Symbol]
    lto-llvm-434951.o(.text.SPI1_IRQHandler) refers to lto-llvm-434951.o(.bss) for hspi1
    lto-llvm-434951.o(.text.SPI1_IRQHandler) refers to lto-llvm-434951.o(.text.HAL_SPI_IRQHandler) for HAL_SPI_IRQHandler
    lto-llvm-434951.o(.ARM.exidx.text.SPI1_IRQHandler) refers to lto-llvm-434951.o(.text.SPI1_IRQHandler) for [Anonymous Symbol]
    lto-llvm-434951.o(.text.DMA2_Stream0_IRQHandler) refers to lto-llvm-434951.o(.bss) for hdma_spi1_rx
    lto-llvm-434951.o(.text.DMA2_Stream0_IRQHandler) refers to lto-llvm-434951.o(.text.HAL_DMA_IRQHandler) for HAL_DMA_IRQHandler
    lto-llvm-434951.o(.ARM.exidx.text.DMA2_Stream0_IRQHandler) refers to lto-llvm-434951.o(.text.DMA2_Stream0_IRQHandler) for [Anonymous Symbol]
    lto-llvm-434951.o(.text.DMA2_Stream2_IRQHandler) refers to lto-llvm-434951.o(.bss) for hdma_usart1_rx
    lto-llvm-434951.o(.text.DMA2_Stream2_IRQHandler) refers to lto-llvm-434951.o(.text.HAL_DMA_IRQHandler) for HAL_DMA_IRQHandler
    lto-llvm-434951.o(.ARM.exidx.text.DMA2_Stream2_IRQHandler) refers to lto-llvm-434951.o(.text.DMA2_Stream2_IRQHandler) for [Anonymous Symbol]
    lto-llvm-434951.o(.text.DMA2_Stream3_IRQHandler) refers to lto-llvm-434951.o(.bss) for hdma_spi1_tx
    lto-llvm-434951.o(.text.DMA2_Stream3_IRQHandler) refers to lto-llvm-434951.o(.text.HAL_DMA_IRQHandler) for HAL_DMA_IRQHandler
    lto-llvm-434951.o(.ARM.exidx.text.DMA2_Stream3_IRQHandler) refers to lto-llvm-434951.o(.text.DMA2_Stream3_IRQHandler) for [Anonymous Symbol]
    lto-llvm-434951.o(.text.DMA2_Stream7_IRQHandler) refers to lto-llvm-434951.o(.bss) for hdma_usart1_tx
    lto-llvm-434951.o(.text.DMA2_Stream7_IRQHandler) refers to lto-llvm-434951.o(.text.HAL_DMA_IRQHandler) for HAL_DMA_IRQHandler
    lto-llvm-434951.o(.ARM.exidx.text.DMA2_Stream7_IRQHandler) refers to lto-llvm-434951.o(.text.DMA2_Stream7_IRQHandler) for [Anonymous Symbol]
    lto-llvm-434951.o(.ARM.exidx.text.SystemInit) refers to lto-llvm-434951.o(.text.SystemInit) for [Anonymous Symbol]
    lto-llvm-434951.o(.text.SystemCoreClockUpdate) refers to lto-llvm-434951.o(.data) for SystemCoreClock
    lto-llvm-434951.o(.text.SystemCoreClockUpdate) refers to lto-llvm-434951.o(.rodata.cst16) for AHBPrescTable
    lto-llvm-434951.o(.ARM.exidx.text.SystemCoreClockUpdate) refers to lto-llvm-434951.o(.text.SystemCoreClockUpdate) for [Anonymous Symbol]
    lto-llvm-434951.o(.text.HAL_Init) refers to lto-llvm-434951.o(.text.HAL_NVIC_SetPriorityGrouping) for HAL_NVIC_SetPriorityGrouping
    lto-llvm-434951.o(.text.HAL_Init) refers to lto-llvm-434951.o(.text.HAL_InitTick) for HAL_InitTick
    lto-llvm-434951.o(.text.HAL_Init) refers to lto-llvm-434951.o(.text.HAL_MspInit) for HAL_MspInit
    lto-llvm-434951.o(.ARM.exidx.text.HAL_Init) refers to lto-llvm-434951.o(.text.HAL_Init) for [Anonymous Symbol]
    lto-llvm-434951.o(.text.HAL_IncTick) refers to lto-llvm-434951.o(.bss) for uwTick
    lto-llvm-434951.o(.ARM.exidx.text.HAL_IncTick) refers to lto-llvm-434951.o(.text.HAL_IncTick) for [Anonymous Symbol]
    lto-llvm-434951.o(.text.HAL_GetTick) refers to lto-llvm-434951.o(.bss) for uwTick
    lto-llvm-434951.o(.ARM.exidx.text.HAL_GetTick) refers to lto-llvm-434951.o(.text.HAL_GetTick) for [Anonymous Symbol]
    lto-llvm-434951.o(.text.HAL_NVIC_SetPriorityGrouping) refers to lto-llvm-434951.o(.text.__NVIC_SetPriorityGrouping) for __NVIC_SetPriorityGrouping
    lto-llvm-434951.o(.ARM.exidx.text.HAL_NVIC_SetPriorityGrouping) refers to lto-llvm-434951.o(.text.HAL_NVIC_SetPriorityGrouping) for [Anonymous Symbol]
    lto-llvm-434951.o(.ARM.exidx.text.__NVIC_SetPriorityGrouping) refers to lto-llvm-434951.o(.text.__NVIC_SetPriorityGrouping) for [Anonymous Symbol]
    lto-llvm-434951.o(.text.HAL_NVIC_SetPriority) refers to lto-llvm-434951.o(.text.__NVIC_GetPriorityGrouping) for __NVIC_GetPriorityGrouping
    lto-llvm-434951.o(.text.HAL_NVIC_SetPriority) refers to lto-llvm-434951.o(.text.NVIC_EncodePriority) for NVIC_EncodePriority
    lto-llvm-434951.o(.text.HAL_NVIC_SetPriority) refers to lto-llvm-434951.o(.text.__NVIC_SetPriority) for __NVIC_SetPriority
    lto-llvm-434951.o(.ARM.exidx.text.HAL_NVIC_SetPriority) refers to lto-llvm-434951.o(.text.HAL_NVIC_SetPriority) for [Anonymous Symbol]
    lto-llvm-434951.o(.ARM.exidx.text.__NVIC_GetPriorityGrouping) refers to lto-llvm-434951.o(.text.__NVIC_GetPriorityGrouping) for [Anonymous Symbol]
    lto-llvm-434951.o(.ARM.exidx.text.NVIC_EncodePriority) refers to lto-llvm-434951.o(.text.NVIC_EncodePriority) for [Anonymous Symbol]
    lto-llvm-434951.o(.ARM.exidx.text.__NVIC_SetPriority) refers to lto-llvm-434951.o(.text.__NVIC_SetPriority) for [Anonymous Symbol]
    lto-llvm-434951.o(.text.HAL_NVIC_EnableIRQ) refers to lto-llvm-434951.o(.text.__NVIC_EnableIRQ) for __NVIC_EnableIRQ
    lto-llvm-434951.o(.ARM.exidx.text.HAL_NVIC_EnableIRQ) refers to lto-llvm-434951.o(.text.HAL_NVIC_EnableIRQ) for [Anonymous Symbol]
    lto-llvm-434951.o(.ARM.exidx.text.__NVIC_EnableIRQ) refers to lto-llvm-434951.o(.text.__NVIC_EnableIRQ) for [Anonymous Symbol]
    lto-llvm-434951.o(.text.HAL_SYSTICK_Config) refers to lto-llvm-434951.o(.text.SysTick_Config) for SysTick_Config
    lto-llvm-434951.o(.ARM.exidx.text.HAL_SYSTICK_Config) refers to lto-llvm-434951.o(.text.HAL_SYSTICK_Config) for [Anonymous Symbol]
    lto-llvm-434951.o(.text.SysTick_Config) refers to lto-llvm-434951.o(.text.__NVIC_SetPriority) for __NVIC_SetPriority
    lto-llvm-434951.o(.ARM.exidx.text.SysTick_Config) refers to lto-llvm-434951.o(.text.SysTick_Config) for [Anonymous Symbol]
    lto-llvm-434951.o(.text.HAL_DMA_Init) refers to lto-llvm-434951.o(.text.HAL_GetTick) for HAL_GetTick
    lto-llvm-434951.o(.text.HAL_DMA_Init) refers to lto-llvm-434951.o(.text.DMA_CheckFifoParam) for DMA_CheckFifoParam
    lto-llvm-434951.o(.text.HAL_DMA_Init) refers to lto-llvm-434951.o(.text.DMA_CalcBaseAndBitshift) for DMA_CalcBaseAndBitshift
    lto-llvm-434951.o(.ARM.exidx.text.HAL_DMA_Init) refers to lto-llvm-434951.o(.text.HAL_DMA_Init) for [Anonymous Symbol]
    lto-llvm-434951.o(.ARM.exidx.text.DMA_CheckFifoParam) refers to lto-llvm-434951.o(.text.DMA_CheckFifoParam) for [Anonymous Symbol]
    lto-llvm-434951.o(.text.DMA_CalcBaseAndBitshift) refers to lto-llvm-434951.o(.rodata.cst8) for DMA_CalcBaseAndBitshift.flagBitshiftOffset
    lto-llvm-434951.o(.ARM.exidx.text.DMA_CalcBaseAndBitshift) refers to lto-llvm-434951.o(.text.DMA_CalcBaseAndBitshift) for [Anonymous Symbol]
    lto-llvm-434951.o(.ARM.exidx.text.DMA_SetConfig) refers to lto-llvm-434951.o(.text.DMA_SetConfig) for [Anonymous Symbol]
    lto-llvm-434951.o(.text.HAL_DMA_Start_IT) refers to lto-llvm-434951.o(.text.DMA_SetConfig) for DMA_SetConfig
    lto-llvm-434951.o(.ARM.exidx.text.HAL_DMA_Start_IT) refers to lto-llvm-434951.o(.text.HAL_DMA_Start_IT) for [Anonymous Symbol]
    lto-llvm-434951.o(.text.HAL_DMA_Abort) refers to lto-llvm-434951.o(.text.HAL_GetTick) for HAL_GetTick
    lto-llvm-434951.o(.ARM.exidx.text.HAL_DMA_Abort) refers to lto-llvm-434951.o(.text.HAL_DMA_Abort) for [Anonymous Symbol]
    lto-llvm-434951.o(.ARM.exidx.text.HAL_DMA_Abort_IT) refers to lto-llvm-434951.o(.text.HAL_DMA_Abort_IT) for [Anonymous Symbol]
    lto-llvm-434951.o(.text.HAL_DMA_IRQHandler) refers to lto-llvm-434951.o(.data) for SystemCoreClock
    lto-llvm-434951.o(.ARM.exidx.text.HAL_DMA_IRQHandler) refers to lto-llvm-434951.o(.text.HAL_DMA_IRQHandler) for [Anonymous Symbol]
    lto-llvm-434951.o(.ARM.exidx.text.HAL_GPIO_Init) refers to lto-llvm-434951.o(.text.HAL_GPIO_Init) for [Anonymous Symbol]
    lto-llvm-434951.o(.ARM.exidx.text.HAL_GPIO_ReadPin) refers to lto-llvm-434951.o(.text.HAL_GPIO_ReadPin) for [Anonymous Symbol]
    lto-llvm-434951.o(.ARM.exidx.text.HAL_GPIO_WritePin) refers to lto-llvm-434951.o(.text.HAL_GPIO_WritePin) for [Anonymous Symbol]
    lto-llvm-434951.o(.text.HAL_I2C_Init) refers to lto-llvm-434951.o(.bss) for hi2c1
    lto-llvm-434951.o(.text.HAL_I2C_Init) refers to lto-llvm-434951.o(.text.HAL_I2C_MspInit) for HAL_I2C_MspInit
    lto-llvm-434951.o(.text.HAL_I2C_Init) refers to lto-llvm-434951.o(.text.HAL_RCC_GetPCLK1Freq) for HAL_RCC_GetPCLK1Freq
    lto-llvm-434951.o(.ARM.exidx.text.HAL_I2C_Init) refers to lto-llvm-434951.o(.text.HAL_I2C_Init) for [Anonymous Symbol]
    lto-llvm-434951.o(.text.HAL_RCC_OscConfig) refers to lto-llvm-434951.o(.text.HAL_GetTick) for HAL_GetTick
    lto-llvm-434951.o(.ARM.exidx.text.HAL_RCC_OscConfig) refers to lto-llvm-434951.o(.text.HAL_RCC_OscConfig) for [Anonymous Symbol]
    lto-llvm-434951.o(.text.HAL_RCC_ClockConfig) refers to lto-llvm-434951.o(.text.HAL_GetTick) for HAL_GetTick
    lto-llvm-434951.o(.text.HAL_RCC_ClockConfig) refers to lto-llvm-434951.o(.text.HAL_RCC_GetSysClockFreq) for HAL_RCC_GetSysClockFreq
    lto-llvm-434951.o(.text.HAL_RCC_ClockConfig) refers to lto-llvm-434951.o(.rodata.cst16) for AHBPrescTable
    lto-llvm-434951.o(.text.HAL_RCC_ClockConfig) refers to lto-llvm-434951.o(.data) for SystemCoreClock
    lto-llvm-434951.o(.text.HAL_RCC_ClockConfig) refers to lto-llvm-434951.o(.text.HAL_InitTick) for HAL_InitTick
    lto-llvm-434951.o(.ARM.exidx.text.HAL_RCC_ClockConfig) refers to lto-llvm-434951.o(.text.HAL_RCC_ClockConfig) for [Anonymous Symbol]
    lto-llvm-434951.o(.text.HAL_RCC_GetSysClockFreq) refers to uldiv.o(.text) for __aeabi_uldivmod
    lto-llvm-434951.o(.ARM.exidx.text.HAL_RCC_GetSysClockFreq) refers to lto-llvm-434951.o(.text.HAL_RCC_GetSysClockFreq) for [Anonymous Symbol]
    lto-llvm-434951.o(.text.HAL_RCC_GetHCLKFreq) refers to lto-llvm-434951.o(.data) for SystemCoreClock
    lto-llvm-434951.o(.ARM.exidx.text.HAL_RCC_GetHCLKFreq) refers to lto-llvm-434951.o(.text.HAL_RCC_GetHCLKFreq) for [Anonymous Symbol]
    lto-llvm-434951.o(.text.HAL_RCC_GetPCLK1Freq) refers to lto-llvm-434951.o(.text.HAL_RCC_GetHCLKFreq) for HAL_RCC_GetHCLKFreq
    lto-llvm-434951.o(.text.HAL_RCC_GetPCLK1Freq) refers to lto-llvm-434951.o(.rodata.cst8) for APBPrescTable
    lto-llvm-434951.o(.ARM.exidx.text.HAL_RCC_GetPCLK1Freq) refers to lto-llvm-434951.o(.text.HAL_RCC_GetPCLK1Freq) for [Anonymous Symbol]
    lto-llvm-434951.o(.text.HAL_RCC_GetPCLK2Freq) refers to lto-llvm-434951.o(.text.HAL_RCC_GetHCLKFreq) for HAL_RCC_GetHCLKFreq
    lto-llvm-434951.o(.text.HAL_RCC_GetPCLK2Freq) refers to lto-llvm-434951.o(.rodata.cst8) for APBPrescTable
    lto-llvm-434951.o(.ARM.exidx.text.HAL_RCC_GetPCLK2Freq) refers to lto-llvm-434951.o(.text.HAL_RCC_GetPCLK2Freq) for [Anonymous Symbol]
    lto-llvm-434951.o(.ARM.exidx.text.HAL_RCC_GetClockConfig) refers to lto-llvm-434951.o(.text.HAL_RCC_GetClockConfig) for [Anonymous Symbol]
    lto-llvm-434951.o(.text.HAL_SPI_Init) refers to lto-llvm-434951.o(.bss) for hspi1
    lto-llvm-434951.o(.text.HAL_SPI_Init) refers to lto-llvm-434951.o(.text.HAL_SPI_MspInit) for HAL_SPI_MspInit
    lto-llvm-434951.o(.ARM.exidx.text.HAL_SPI_Init) refers to lto-llvm-434951.o(.text.HAL_SPI_Init) for [Anonymous Symbol]
    lto-llvm-434951.o(.text.HAL_SPI_Transmit) refers to lto-llvm-434951.o(.text.HAL_GetTick) for HAL_GetTick
    lto-llvm-434951.o(.text.HAL_SPI_Transmit) refers to lto-llvm-434951.o(.text.SPI_EndRxTxTransaction) for SPI_EndRxTxTransaction
    lto-llvm-434951.o(.ARM.exidx.text.HAL_SPI_Transmit) refers to lto-llvm-434951.o(.text.HAL_SPI_Transmit) for [Anonymous Symbol]
    lto-llvm-434951.o(.text.SPI_EndRxTxTransaction) refers to lto-llvm-434951.o(.data) for SystemCoreClock
    lto-llvm-434951.o(.text.SPI_EndRxTxTransaction) refers to lto-llvm-434951.o(.text.SPI_WaitFlagStateUntilTimeout) for SPI_WaitFlagStateUntilTimeout
    lto-llvm-434951.o(.ARM.exidx.text.SPI_EndRxTxTransaction) refers to lto-llvm-434951.o(.text.SPI_EndRxTxTransaction) for [Anonymous Symbol]
    lto-llvm-434951.o(.text.SPI_WaitFlagStateUntilTimeout) refers to lto-llvm-434951.o(.text.HAL_GetTick) for HAL_GetTick
    lto-llvm-434951.o(.text.SPI_WaitFlagStateUntilTimeout) refers to lto-llvm-434951.o(.data) for SystemCoreClock
    lto-llvm-434951.o(.ARM.exidx.text.SPI_WaitFlagStateUntilTimeout) refers to lto-llvm-434951.o(.text.SPI_WaitFlagStateUntilTimeout) for [Anonymous Symbol]
    lto-llvm-434951.o(.text.HAL_SPI_Receive) refers to lto-llvm-434951.o(.text.HAL_SPI_TransmitReceive) for HAL_SPI_TransmitReceive
    lto-llvm-434951.o(.text.HAL_SPI_Receive) refers to lto-llvm-434951.o(.text.HAL_GetTick) for HAL_GetTick
    lto-llvm-434951.o(.text.HAL_SPI_Receive) refers to lto-llvm-434951.o(.text.SPI_EndRxTransaction) for SPI_EndRxTransaction
    lto-llvm-434951.o(.ARM.exidx.text.HAL_SPI_Receive) refers to lto-llvm-434951.o(.text.HAL_SPI_Receive) for [Anonymous Symbol]
    lto-llvm-434951.o(.text.HAL_SPI_TransmitReceive) refers to lto-llvm-434951.o(.text.HAL_GetTick) for HAL_GetTick
    lto-llvm-434951.o(.text.HAL_SPI_TransmitReceive) refers to lto-llvm-434951.o(.text.SPI_EndRxTxTransaction) for SPI_EndRxTxTransaction
    lto-llvm-434951.o(.ARM.exidx.text.HAL_SPI_TransmitReceive) refers to lto-llvm-434951.o(.text.HAL_SPI_TransmitReceive) for [Anonymous Symbol]
    lto-llvm-434951.o(.text.SPI_EndRxTransaction) refers to lto-llvm-434951.o(.text.SPI_WaitFlagStateUntilTimeout) for SPI_WaitFlagStateUntilTimeout
    lto-llvm-434951.o(.ARM.exidx.text.SPI_EndRxTransaction) refers to lto-llvm-434951.o(.text.SPI_EndRxTransaction) for [Anonymous Symbol]
    lto-llvm-434951.o(.ARM.exidx.text.HAL_SPI_ErrorCallback) refers to lto-llvm-434951.o(.text.HAL_SPI_ErrorCallback) for [Anonymous Symbol]
    lto-llvm-434951.o(.text.HAL_SPI_IRQHandler) refers to lto-llvm-434951.o(.text.SPI_DMAAbortOnError) for SPI_DMAAbortOnError
    lto-llvm-434951.o(.text.HAL_SPI_IRQHandler) refers to lto-llvm-434951.o(.text.HAL_DMA_Abort_IT) for HAL_DMA_Abort_IT
    lto-llvm-434951.o(.text.HAL_SPI_IRQHandler) refers to lto-llvm-434951.o(.text.HAL_SPI_ErrorCallback) for HAL_SPI_ErrorCallback
    lto-llvm-434951.o(.ARM.exidx.text.HAL_SPI_IRQHandler) refers to lto-llvm-434951.o(.text.HAL_SPI_IRQHandler) for [Anonymous Symbol]
    lto-llvm-434951.o(.text.SPI_DMAAbortOnError) refers to lto-llvm-434951.o(.text.HAL_SPI_ErrorCallback) for HAL_SPI_ErrorCallback
    lto-llvm-434951.o(.ARM.exidx.text.SPI_DMAAbortOnError) refers to lto-llvm-434951.o(.text.SPI_DMAAbortOnError) for [Anonymous Symbol]
    lto-llvm-434951.o(.text.HAL_TIM_Base_Init) refers to lto-llvm-434951.o(.bss) for htim1
    lto-llvm-434951.o(.text.HAL_TIM_Base_Init) refers to lto-llvm-434951.o(.text.HAL_TIM_Base_MspInit) for HAL_TIM_Base_MspInit
    lto-llvm-434951.o(.text.HAL_TIM_Base_Init) refers to lto-llvm-434951.o(.text.TIM_Base_SetConfig) for TIM_Base_SetConfig
    lto-llvm-434951.o(.ARM.exidx.text.HAL_TIM_Base_Init) refers to lto-llvm-434951.o(.text.HAL_TIM_Base_Init) for [Anonymous Symbol]
    lto-llvm-434951.o(.ARM.exidx.text.HAL_TIM_Base_MspInit) refers to lto-llvm-434951.o(.text.HAL_TIM_Base_MspInit) for [Anonymous Symbol]
    lto-llvm-434951.o(.ARM.exidx.text.TIM_Base_SetConfig) refers to lto-llvm-434951.o(.text.TIM_Base_SetConfig) for [Anonymous Symbol]
    lto-llvm-434951.o(.text.HAL_TIM_Base_Start_IT) refers to lto-llvm-434951.o(.bss) for htim1
    lto-llvm-434951.o(.ARM.exidx.text.HAL_TIM_Base_Start_IT) refers to lto-llvm-434951.o(.text.HAL_TIM_Base_Start_IT) for [Anonymous Symbol]
    lto-llvm-434951.o(.ARM.exidx.text.HAL_TIM_PWM_PulseFinishedCallback) refers to lto-llvm-434951.o(.text.HAL_TIM_PWM_PulseFinishedCallback) for [Anonymous Symbol]
    lto-llvm-434951.o(.ARM.exidx.text.HAL_TIM_IC_CaptureCallback) refers to lto-llvm-434951.o(.text.HAL_TIM_IC_CaptureCallback) for [Anonymous Symbol]
    lto-llvm-434951.o(.text.HAL_TIM_IRQHandler) refers to lto-llvm-434951.o(.text.HAL_TIM_IC_CaptureCallback) for HAL_TIM_IC_CaptureCallback
    lto-llvm-434951.o(.text.HAL_TIM_IRQHandler) refers to lto-llvm-434951.o(.text.HAL_TIM_OC_DelayElapsedCallback) for HAL_TIM_OC_DelayElapsedCallback
    lto-llvm-434951.o(.text.HAL_TIM_IRQHandler) refers to lto-llvm-434951.o(.text.HAL_TIM_PWM_PulseFinishedCallback) for HAL_TIM_PWM_PulseFinishedCallback
    lto-llvm-434951.o(.text.HAL_TIM_IRQHandler) refers to lto-llvm-434951.o(.text.HAL_TIM_PeriodElapsedCallback) for HAL_TIM_PeriodElapsedCallback
    lto-llvm-434951.o(.text.HAL_TIM_IRQHandler) refers to lto-llvm-434951.o(.text.HAL_TIMEx_BreakCallback) for HAL_TIMEx_BreakCallback
    lto-llvm-434951.o(.text.HAL_TIM_IRQHandler) refers to lto-llvm-434951.o(.text.HAL_TIM_TriggerCallback) for HAL_TIM_TriggerCallback
    lto-llvm-434951.o(.text.HAL_TIM_IRQHandler) refers to lto-llvm-434951.o(.text.HAL_TIMEx_CommutCallback) for HAL_TIMEx_CommutCallback
    lto-llvm-434951.o(.ARM.exidx.text.HAL_TIM_IRQHandler) refers to lto-llvm-434951.o(.text.HAL_TIM_IRQHandler) for [Anonymous Symbol]
    lto-llvm-434951.o(.ARM.exidx.text.HAL_TIM_OC_DelayElapsedCallback) refers to lto-llvm-434951.o(.text.HAL_TIM_OC_DelayElapsedCallback) for [Anonymous Symbol]
    lto-llvm-434951.o(.ARM.exidx.text.HAL_TIM_TriggerCallback) refers to lto-llvm-434951.o(.text.HAL_TIM_TriggerCallback) for [Anonymous Symbol]
    lto-llvm-434951.o(.ARM.exidx.text.HAL_TIMEx_CommutCallback) refers to lto-llvm-434951.o(.text.HAL_TIMEx_CommutCallback) for [Anonymous Symbol]
    lto-llvm-434951.o(.ARM.exidx.text.HAL_TIMEx_BreakCallback) refers to lto-llvm-434951.o(.text.HAL_TIMEx_BreakCallback) for [Anonymous Symbol]
    lto-llvm-434951.o(.text.HAL_UART_Init) refers to lto-llvm-434951.o(.text.HAL_UART_MspInit) for HAL_UART_MspInit
    lto-llvm-434951.o(.text.HAL_UART_Init) refers to lto-llvm-434951.o(.text.UART_SetConfig) for UART_SetConfig
    lto-llvm-434951.o(.ARM.exidx.text.HAL_UART_Init) refers to lto-llvm-434951.o(.text.HAL_UART_Init) for [Anonymous Symbol]
    lto-llvm-434951.o(.text.UART_SetConfig) refers to lto-llvm-434951.o(.text.HAL_RCC_GetPCLK2Freq) for HAL_RCC_GetPCLK2Freq
    lto-llvm-434951.o(.text.UART_SetConfig) refers to lto-llvm-434951.o(.text.HAL_RCC_GetPCLK1Freq) for HAL_RCC_GetPCLK1Freq
    lto-llvm-434951.o(.text.UART_SetConfig) refers to uldiv.o(.text) for __aeabi_uldivmod
    lto-llvm-434951.o(.ARM.exidx.text.UART_SetConfig) refers to lto-llvm-434951.o(.text.UART_SetConfig) for [Anonymous Symbol]
    lto-llvm-434951.o(.text.HAL_UART_Transmit) refers to lto-llvm-434951.o(.bss) for strtmp
    lto-llvm-434951.o(.text.HAL_UART_Transmit) refers to lto-llvm-434951.o(.text.HAL_GetTick) for HAL_GetTick
    lto-llvm-434951.o(.text.HAL_UART_Transmit) refers to lto-llvm-434951.o(.text.UART_WaitOnFlagUntilTimeout) for UART_WaitOnFlagUntilTimeout
    lto-llvm-434951.o(.ARM.exidx.text.HAL_UART_Transmit) refers to lto-llvm-434951.o(.text.HAL_UART_Transmit) for [Anonymous Symbol]
    lto-llvm-434951.o(.text.UART_WaitOnFlagUntilTimeout) refers to lto-llvm-434951.o(.text.HAL_GetTick) for HAL_GetTick
    lto-llvm-434951.o(.ARM.exidx.text.UART_WaitOnFlagUntilTimeout) refers to lto-llvm-434951.o(.text.UART_WaitOnFlagUntilTimeout) for [Anonymous Symbol]
    lto-llvm-434951.o(.text.HAL_UART_Transmit_DMA) refers to lto-llvm-434951.o(.text.UART_DMATransmitCplt) for UART_DMATransmitCplt
    lto-llvm-434951.o(.text.HAL_UART_Transmit_DMA) refers to lto-llvm-434951.o(.text.UART_DMATxHalfCplt) for UART_DMATxHalfCplt
    lto-llvm-434951.o(.text.HAL_UART_Transmit_DMA) refers to lto-llvm-434951.o(.text.UART_DMAError) for UART_DMAError
    lto-llvm-434951.o(.text.HAL_UART_Transmit_DMA) refers to lto-llvm-434951.o(.text.HAL_DMA_Start_IT) for HAL_DMA_Start_IT
    lto-llvm-434951.o(.ARM.exidx.text.HAL_UART_Transmit_DMA) refers to lto-llvm-434951.o(.text.HAL_UART_Transmit_DMA) for [Anonymous Symbol]
    lto-llvm-434951.o(.text.UART_DMATransmitCplt) refers to lto-llvm-434951.o(.text.HAL_UART_TxCpltCallback) for HAL_UART_TxCpltCallback
    lto-llvm-434951.o(.ARM.exidx.text.UART_DMATransmitCplt) refers to lto-llvm-434951.o(.text.UART_DMATransmitCplt) for [Anonymous Symbol]
    lto-llvm-434951.o(.text.UART_DMATxHalfCplt) refers to lto-llvm-434951.o(.text.HAL_UART_TxHalfCpltCallback) for HAL_UART_TxHalfCpltCallback
    lto-llvm-434951.o(.ARM.exidx.text.UART_DMATxHalfCplt) refers to lto-llvm-434951.o(.text.UART_DMATxHalfCplt) for [Anonymous Symbol]
    lto-llvm-434951.o(.text.UART_DMAError) refers to lto-llvm-434951.o(.text.UART_EndTxTransfer) for UART_EndTxTransfer
    lto-llvm-434951.o(.text.UART_DMAError) refers to lto-llvm-434951.o(.text.UART_EndRxTransfer) for UART_EndRxTransfer
    lto-llvm-434951.o(.text.UART_DMAError) refers to lto-llvm-434951.o(.text.HAL_UART_ErrorCallback) for HAL_UART_ErrorCallback
    lto-llvm-434951.o(.ARM.exidx.text.UART_DMAError) refers to lto-llvm-434951.o(.text.UART_DMAError) for [Anonymous Symbol]
    lto-llvm-434951.o(.ARM.exidx.text.UART_EndTxTransfer) refers to lto-llvm-434951.o(.text.UART_EndTxTransfer) for [Anonymous Symbol]
    lto-llvm-434951.o(.ARM.exidx.text.UART_EndRxTransfer) refers to lto-llvm-434951.o(.text.UART_EndRxTransfer) for [Anonymous Symbol]
    lto-llvm-434951.o(.ARM.exidx.text.HAL_UART_ErrorCallback) refers to lto-llvm-434951.o(.text.HAL_UART_ErrorCallback) for [Anonymous Symbol]
    lto-llvm-434951.o(.ARM.exidx.text.HAL_UART_TxHalfCpltCallback) refers to lto-llvm-434951.o(.text.HAL_UART_TxHalfCpltCallback) for [Anonymous Symbol]
    lto-llvm-434951.o(.ARM.exidx.text.HAL_UART_TxCpltCallback) refers to lto-llvm-434951.o(.text.HAL_UART_TxCpltCallback) for [Anonymous Symbol]
    lto-llvm-434951.o(.text.UART_Start_Receive_DMA) refers to lto-llvm-434951.o(.text.UART_DMAReceiveCplt) for UART_DMAReceiveCplt
    lto-llvm-434951.o(.text.UART_Start_Receive_DMA) refers to lto-llvm-434951.o(.text.UART_DMARxHalfCplt) for UART_DMARxHalfCplt
    lto-llvm-434951.o(.text.UART_Start_Receive_DMA) refers to lto-llvm-434951.o(.text.UART_DMAError) for UART_DMAError
    lto-llvm-434951.o(.text.UART_Start_Receive_DMA) refers to lto-llvm-434951.o(.text.HAL_DMA_Start_IT) for HAL_DMA_Start_IT
    lto-llvm-434951.o(.ARM.exidx.text.UART_Start_Receive_DMA) refers to lto-llvm-434951.o(.text.UART_Start_Receive_DMA) for [Anonymous Symbol]
    lto-llvm-434951.o(.text.UART_DMAReceiveCplt) refers to lto-llvm-434951.o(.text.HAL_UARTEx_RxEventCallback) for HAL_UARTEx_RxEventCallback
    lto-llvm-434951.o(.text.UART_DMAReceiveCplt) refers to lto-llvm-434951.o(.text.HAL_UART_RxCpltCallback) for HAL_UART_RxCpltCallback
    lto-llvm-434951.o(.ARM.exidx.text.UART_DMAReceiveCplt) refers to lto-llvm-434951.o(.text.UART_DMAReceiveCplt) for [Anonymous Symbol]
    lto-llvm-434951.o(.text.UART_DMARxHalfCplt) refers to lto-llvm-434951.o(.text.HAL_UARTEx_RxEventCallback) for HAL_UARTEx_RxEventCallback
    lto-llvm-434951.o(.text.UART_DMARxHalfCplt) refers to lto-llvm-434951.o(.text.HAL_UART_RxHalfCpltCallback) for HAL_UART_RxHalfCpltCallback
    lto-llvm-434951.o(.ARM.exidx.text.UART_DMARxHalfCplt) refers to lto-llvm-434951.o(.text.UART_DMARxHalfCplt) for [Anonymous Symbol]
    lto-llvm-434951.o(.ARM.exidx.text.HAL_UART_RxHalfCpltCallback) refers to lto-llvm-434951.o(.text.HAL_UART_RxHalfCpltCallback) for [Anonymous Symbol]
    lto-llvm-434951.o(.ARM.exidx.text.HAL_UART_RxCpltCallback) refers to lto-llvm-434951.o(.text.HAL_UART_RxCpltCallback) for [Anonymous Symbol]
    lto-llvm-434951.o(.text.HAL_UARTEx_ReceiveToIdle_DMA) refers to lto-llvm-434951.o(.bss) for usart1
    lto-llvm-434951.o(.text.HAL_UARTEx_ReceiveToIdle_DMA) refers to lto-llvm-434951.o(.text.UART_Start_Receive_DMA) for UART_Start_Receive_DMA
    lto-llvm-434951.o(.ARM.exidx.text.HAL_UARTEx_ReceiveToIdle_DMA) refers to lto-llvm-434951.o(.text.HAL_UARTEx_ReceiveToIdle_DMA) for [Anonymous Symbol]
    lto-llvm-434951.o(.text.HAL_UART_IRQHandler) refers to lto-llvm-434951.o(.text.UART_Receive_IT) for UART_Receive_IT
    lto-llvm-434951.o(.text.HAL_UART_IRQHandler) refers to lto-llvm-434951.o(.text.UART_EndRxTransfer) for UART_EndRxTransfer
    lto-llvm-434951.o(.text.HAL_UART_IRQHandler) refers to lto-llvm-434951.o(.text.UART_DMAAbortOnError) for UART_DMAAbortOnError
    lto-llvm-434951.o(.text.HAL_UART_IRQHandler) refers to lto-llvm-434951.o(.text.HAL_DMA_Abort_IT) for HAL_DMA_Abort_IT
    lto-llvm-434951.o(.text.HAL_UART_IRQHandler) refers to lto-llvm-434951.o(.text.HAL_UART_ErrorCallback) for HAL_UART_ErrorCallback
    lto-llvm-434951.o(.text.HAL_UART_IRQHandler) refers to lto-llvm-434951.o(.text.HAL_DMA_Abort) for HAL_DMA_Abort
    lto-llvm-434951.o(.text.HAL_UART_IRQHandler) refers to lto-llvm-434951.o(.text.HAL_UARTEx_RxEventCallback) for HAL_UARTEx_RxEventCallback
    lto-llvm-434951.o(.text.HAL_UART_IRQHandler) refers to lto-llvm-434951.o(.text.UART_Transmit_IT) for UART_Transmit_IT
    lto-llvm-434951.o(.text.HAL_UART_IRQHandler) refers to lto-llvm-434951.o(.text.UART_EndTransmit_IT) for UART_EndTransmit_IT
    lto-llvm-434951.o(.ARM.exidx.text.HAL_UART_IRQHandler) refers to lto-llvm-434951.o(.text.HAL_UART_IRQHandler) for [Anonymous Symbol]
    lto-llvm-434951.o(.text.UART_Receive_IT) refers to lto-llvm-434951.o(.text.HAL_UARTEx_RxEventCallback) for HAL_UARTEx_RxEventCallback
    lto-llvm-434951.o(.text.UART_Receive_IT) refers to lto-llvm-434951.o(.text.HAL_UART_RxCpltCallback) for HAL_UART_RxCpltCallback
    lto-llvm-434951.o(.ARM.exidx.text.UART_Receive_IT) refers to lto-llvm-434951.o(.text.UART_Receive_IT) for [Anonymous Symbol]
    lto-llvm-434951.o(.text.UART_DMAAbortOnError) refers to lto-llvm-434951.o(.text.HAL_UART_ErrorCallback) for HAL_UART_ErrorCallback
    lto-llvm-434951.o(.ARM.exidx.text.UART_DMAAbortOnError) refers to lto-llvm-434951.o(.text.UART_DMAAbortOnError) for [Anonymous Symbol]
    lto-llvm-434951.o(.ARM.exidx.text.UART_Transmit_IT) refers to lto-llvm-434951.o(.text.UART_Transmit_IT) for [Anonymous Symbol]
    lto-llvm-434951.o(.text.UART_EndTransmit_IT) refers to lto-llvm-434951.o(.text.HAL_UART_TxCpltCallback) for HAL_UART_TxCpltCallback
    lto-llvm-434951.o(.ARM.exidx.text.UART_EndTransmit_IT) refers to lto-llvm-434951.o(.text.UART_EndTransmit_IT) for [Anonymous Symbol]
    lto-llvm-434951.o(.ARM.exidx.text.rt_heap_begin_get) refers to lto-llvm-434951.o(.text.rt_heap_begin_get) for [Anonymous Symbol]
    lto-llvm-434951.o(.ARM.exidx.text.rt_heap_end_get) refers to lto-llvm-434951.o(.text.rt_heap_end_get) for [Anonymous Symbol]
    lto-llvm-434951.o(.text.SysTick_Handler) refers to lto-llvm-434951.o(.text.rt_interrupt_enter) for rt_interrupt_enter
    lto-llvm-434951.o(.text.SysTick_Handler) refers to lto-llvm-434951.o(.text.rt_tick_increase) for rt_tick_increase
    lto-llvm-434951.o(.text.SysTick_Handler) refers to lto-llvm-434951.o(.text.rt_interrupt_leave) for rt_interrupt_leave
    lto-llvm-434951.o(.ARM.exidx.text.SysTick_Handler) refers to lto-llvm-434951.o(.text.SysTick_Handler) for [Anonymous Symbol]
    lto-llvm-434951.o(.text.rt_hw_board_init) refers to lto-llvm-434951.o(.text.HAL_Init) for HAL_Init
    lto-llvm-434951.o(.text.rt_hw_board_init) refers to lto-llvm-434951.o(.text.SystemClock_Config) for SystemClock_Config
    lto-llvm-434951.o(.text.rt_hw_board_init) refers to lto-llvm-434951.o(.text.SystemCoreClockUpdate) for SystemCoreClockUpdate
    lto-llvm-434951.o(.text.rt_hw_board_init) refers to lto-llvm-434951.o(.text.HAL_RCC_GetHCLKFreq) for HAL_RCC_GetHCLKFreq
    lto-llvm-434951.o(.text.rt_hw_board_init) refers to lto-llvm-434951.o(.text.HAL_SYSTICK_Config) for HAL_SYSTICK_Config
    lto-llvm-434951.o(.text.rt_hw_board_init) refers to lto-llvm-434951.o(.text.rt_components_board_init) for rt_components_board_init
    lto-llvm-434951.o(.text.rt_hw_board_init) refers to lto-llvm-434951.o(.text.rt_system_heap_init) for rt_system_heap_init
    lto-llvm-434951.o(.ARM.exidx.text.rt_hw_board_init) refers to lto-llvm-434951.o(.text.rt_hw_board_init) for [Anonymous Symbol]
    lto-llvm-434951.o(.text.hello) refers to lto-llvm-434951.o(.rodata.str1.1) for .L.str
    lto-llvm-434951.o(.text.hello) refers to lto-llvm-434951.o(.text.rt_kprintf) for rt_kprintf
    lto-llvm-434951.o(.ARM.exidx.text.hello) refers to lto-llvm-434951.o(.text.hello) for [Anonymous Symbol]
    lto-llvm-434951.o(.text.version) refers to lto-llvm-434951.o(.text.rt_show_version) for rt_show_version
    lto-llvm-434951.o(.ARM.exidx.text.version) refers to lto-llvm-434951.o(.text.version) for [Anonymous Symbol]
    lto-llvm-434951.o(.text.list_thread) refers to lto-llvm-434951.o(.rodata.str1.1) for .L.str.1
    lto-llvm-434951.o(.text.list_thread) refers to lto-llvm-434951.o(.text.list_find_init) for list_find_init
    lto-llvm-434951.o(.text.list_thread) refers to lto-llvm-434951.o(.text.rt_kprintf) for rt_kprintf
    lto-llvm-434951.o(.text.list_thread) refers to lto-llvm-434951.o(.text.object_split) for object_split
    lto-llvm-434951.o(.text.list_thread) refers to lto-llvm-434951.o(.text.list_get_next) for list_get_next
    lto-llvm-434951.o(.text.list_thread) refers to context_rvds.o(.text) for rt_hw_interrupt_disable
    lto-llvm-434951.o(.text.list_thread) refers to memcpya.o(.text) for __aeabi_memcpy4
    lto-llvm-434951.o(.ARM.exidx.text.list_thread) refers to lto-llvm-434951.o(.text.list_thread) for [Anonymous Symbol]
    lto-llvm-434951.o(.text.list_find_init) refers to lto-llvm-434951.o(.text.rt_object_get_information) for rt_object_get_information
    lto-llvm-434951.o(.ARM.exidx.text.list_find_init) refers to lto-llvm-434951.o(.text.list_find_init) for [Anonymous Symbol]
    lto-llvm-434951.o(.text.object_split) refers to lto-llvm-434951.o(.rodata.str1.1) for .L.str.46
    lto-llvm-434951.o(.text.object_split) refers to lto-llvm-434951.o(.text.rt_kprintf) for rt_kprintf
    lto-llvm-434951.o(.ARM.exidx.text.object_split) refers to lto-llvm-434951.o(.text.object_split) for [Anonymous Symbol]
    lto-llvm-434951.o(.text.list_get_next) refers to context_rvds.o(.text) for rt_hw_interrupt_disable
    lto-llvm-434951.o(.ARM.exidx.text.list_get_next) refers to lto-llvm-434951.o(.text.list_get_next) for [Anonymous Symbol]
    lto-llvm-434951.o(.text.list_sem) refers to lto-llvm-434951.o(.rodata.str1.1) for .L.str.11
    lto-llvm-434951.o(.text.list_sem) refers to lto-llvm-434951.o(.text.list_find_init) for list_find_init
    lto-llvm-434951.o(.text.list_sem) refers to lto-llvm-434951.o(.text.rt_kprintf) for rt_kprintf
    lto-llvm-434951.o(.text.list_sem) refers to lto-llvm-434951.o(.text.object_split) for object_split
    lto-llvm-434951.o(.text.list_sem) refers to lto-llvm-434951.o(.text.list_get_next) for list_get_next
    lto-llvm-434951.o(.text.list_sem) refers to context_rvds.o(.text) for rt_hw_interrupt_disable
    lto-llvm-434951.o(.text.list_sem) refers to lto-llvm-434951.o(.text.rt_list_isempty) for rt_list_isempty
    lto-llvm-434951.o(.text.list_sem) refers to lto-llvm-434951.o(.text.rt_list_len) for rt_list_len
    lto-llvm-434951.o(.text.list_sem) refers to lto-llvm-434951.o(.text.show_wait_queue) for show_wait_queue
    lto-llvm-434951.o(.ARM.exidx.text.list_sem) refers to lto-llvm-434951.o(.text.list_sem) for [Anonymous Symbol]
    lto-llvm-434951.o(.ARM.exidx.text.rt_list_isempty) refers to lto-llvm-434951.o(.text.rt_list_isempty) for [Anonymous Symbol]
    lto-llvm-434951.o(.ARM.exidx.text.rt_list_len) refers to lto-llvm-434951.o(.text.rt_list_len) for [Anonymous Symbol]
    lto-llvm-434951.o(.text.show_wait_queue) refers to lto-llvm-434951.o(.rodata.str1.1) for .L.str.396
    lto-llvm-434951.o(.text.show_wait_queue) refers to lto-llvm-434951.o(.text.rt_kprintf) for rt_kprintf
    lto-llvm-434951.o(.ARM.exidx.text.show_wait_queue) refers to lto-llvm-434951.o(.text.show_wait_queue) for [Anonymous Symbol]
    lto-llvm-434951.o(.text.list_event) refers to lto-llvm-434951.o(.rodata.str1.1) for .L.str.17
    lto-llvm-434951.o(.text.list_event) refers to lto-llvm-434951.o(.text.list_find_init) for list_find_init
    lto-llvm-434951.o(.text.list_event) refers to lto-llvm-434951.o(.text.rt_kprintf) for rt_kprintf
    lto-llvm-434951.o(.text.list_event) refers to lto-llvm-434951.o(.text.object_split) for object_split
    lto-llvm-434951.o(.text.list_event) refers to lto-llvm-434951.o(.text.list_get_next) for list_get_next
    lto-llvm-434951.o(.text.list_event) refers to context_rvds.o(.text) for rt_hw_interrupt_disable
    lto-llvm-434951.o(.text.list_event) refers to lto-llvm-434951.o(.text.rt_list_isempty) for rt_list_isempty
    lto-llvm-434951.o(.text.list_event) refers to lto-llvm-434951.o(.text.rt_list_len) for rt_list_len
    lto-llvm-434951.o(.text.list_event) refers to lto-llvm-434951.o(.text.show_wait_queue) for show_wait_queue
    lto-llvm-434951.o(.ARM.exidx.text.list_event) refers to lto-llvm-434951.o(.text.list_event) for [Anonymous Symbol]
    lto-llvm-434951.o(.text.list_mutex) refers to lto-llvm-434951.o(.rodata.str1.1) for .L.str.22
    lto-llvm-434951.o(.text.list_mutex) refers to lto-llvm-434951.o(.text.list_find_init) for list_find_init
    lto-llvm-434951.o(.text.list_mutex) refers to lto-llvm-434951.o(.text.rt_kprintf) for rt_kprintf
    lto-llvm-434951.o(.text.list_mutex) refers to lto-llvm-434951.o(.text.object_split) for object_split
    lto-llvm-434951.o(.text.list_mutex) refers to lto-llvm-434951.o(.text.list_get_next) for list_get_next
    lto-llvm-434951.o(.text.list_mutex) refers to context_rvds.o(.text) for rt_hw_interrupt_disable
    lto-llvm-434951.o(.text.list_mutex) refers to lto-llvm-434951.o(.text.rt_list_len) for rt_list_len
    lto-llvm-434951.o(.ARM.exidx.text.list_mutex) refers to lto-llvm-434951.o(.text.list_mutex) for [Anonymous Symbol]
    lto-llvm-434951.o(.text.list_mailbox) refers to lto-llvm-434951.o(.rodata.str1.1) for .L.str.26
    lto-llvm-434951.o(.text.list_mailbox) refers to lto-llvm-434951.o(.text.list_find_init) for list_find_init
    lto-llvm-434951.o(.text.list_mailbox) refers to lto-llvm-434951.o(.text.rt_kprintf) for rt_kprintf
    lto-llvm-434951.o(.text.list_mailbox) refers to lto-llvm-434951.o(.text.object_split) for object_split
    lto-llvm-434951.o(.text.list_mailbox) refers to lto-llvm-434951.o(.text.list_get_next) for list_get_next
    lto-llvm-434951.o(.text.list_mailbox) refers to context_rvds.o(.text) for rt_hw_interrupt_disable
    lto-llvm-434951.o(.text.list_mailbox) refers to lto-llvm-434951.o(.text.rt_list_isempty) for rt_list_isempty
    lto-llvm-434951.o(.text.list_mailbox) refers to lto-llvm-434951.o(.text.rt_list_len) for rt_list_len
    lto-llvm-434951.o(.text.list_mailbox) refers to lto-llvm-434951.o(.text.show_wait_queue) for show_wait_queue
    lto-llvm-434951.o(.ARM.exidx.text.list_mailbox) refers to lto-llvm-434951.o(.text.list_mailbox) for [Anonymous Symbol]
    lto-llvm-434951.o(.text.list_mempool) refers to lto-llvm-434951.o(.rodata.str1.1) for .L.str.31
    lto-llvm-434951.o(.text.list_mempool) refers to lto-llvm-434951.o(.text.list_find_init) for list_find_init
    lto-llvm-434951.o(.text.list_mempool) refers to lto-llvm-434951.o(.text.rt_kprintf) for rt_kprintf
    lto-llvm-434951.o(.text.list_mempool) refers to lto-llvm-434951.o(.text.object_split) for object_split
    lto-llvm-434951.o(.text.list_mempool) refers to lto-llvm-434951.o(.text.list_get_next) for list_get_next
    lto-llvm-434951.o(.text.list_mempool) refers to context_rvds.o(.text) for rt_hw_interrupt_disable
    lto-llvm-434951.o(.text.list_mempool) refers to lto-llvm-434951.o(.text.show_wait_queue) for show_wait_queue
    lto-llvm-434951.o(.ARM.exidx.text.list_mempool) refers to lto-llvm-434951.o(.text.list_mempool) for [Anonymous Symbol]
    lto-llvm-434951.o(.text.list_timer) refers to lto-llvm-434951.o(.rodata.str1.1) for .L.str.5.349
    lto-llvm-434951.o(.text.list_timer) refers to lto-llvm-434951.o(.text.list_find_init) for list_find_init
    lto-llvm-434951.o(.text.list_timer) refers to lto-llvm-434951.o(.text.rt_kprintf) for rt_kprintf
    lto-llvm-434951.o(.text.list_timer) refers to lto-llvm-434951.o(.text.object_split) for object_split
    lto-llvm-434951.o(.text.list_timer) refers to lto-llvm-434951.o(.text.list_get_next) for list_get_next
    lto-llvm-434951.o(.text.list_timer) refers to context_rvds.o(.text) for rt_hw_interrupt_disable
    lto-llvm-434951.o(.text.list_timer) refers to lto-llvm-434951.o(.text.rt_tick_get) for rt_tick_get
    lto-llvm-434951.o(.ARM.exidx.text.list_timer) refers to lto-llvm-434951.o(.text.list_timer) for [Anonymous Symbol]
    lto-llvm-434951.o(.text.list) refers to lto-llvm-434951.o(.rodata.str1.1) for .L.str.43
    lto-llvm-434951.o(.text.list) refers to lto-llvm-434951.o(.text.rt_kprintf) for rt_kprintf
    lto-llvm-434951.o(.text.list) refers to lto-llvm-434951.o(.bss) for _syscall_table_begin
    lto-llvm-434951.o(.text.list) refers to strncmp.o(.text) for strncmp
    lto-llvm-434951.o(.ARM.exidx.text.list) refers to lto-llvm-434951.o(.text.list) for [Anonymous Symbol]
    lto-llvm-434951.o(.text.msh_help) refers to lto-llvm-434951.o(.rodata.str1.1) for .L.str.64
    lto-llvm-434951.o(.text.msh_help) refers to lto-llvm-434951.o(.text.rt_kprintf) for rt_kprintf
    lto-llvm-434951.o(.text.msh_help) refers to lto-llvm-434951.o(.bss) for _syscall_table_begin
    lto-llvm-434951.o(.text.msh_help) refers to strncmp.o(.text) for strncmp
    lto-llvm-434951.o(.ARM.exidx.text.msh_help) refers to lto-llvm-434951.o(.text.msh_help) for [Anonymous Symbol]
    lto-llvm-434951.o(.text.cmd_ps) refers to lto-llvm-434951.o(.text.list_thread) for list_thread
    lto-llvm-434951.o(.ARM.exidx.text.cmd_ps) refers to lto-llvm-434951.o(.text.cmd_ps) for [Anonymous Symbol]
    lto-llvm-434951.o(.text.cmd_free) refers to lto-llvm-434951.o(.text.list_mem) for list_mem
    lto-llvm-434951.o(.ARM.exidx.text.cmd_free) refers to lto-llvm-434951.o(.text.cmd_free) for [Anonymous Symbol]
    lto-llvm-434951.o(.ARM.exidx.text.msh_is_used) refers to lto-llvm-434951.o(.text.msh_is_used) for [Anonymous Symbol]
    lto-llvm-434951.o(.text.msh_exec) refers to lto-llvm-434951.o(.text._msh_exec_cmd) for _msh_exec_cmd
    lto-llvm-434951.o(.text.msh_exec) refers to lto-llvm-434951.o(.rodata.str1.1) for .L.str.4.69
    lto-llvm-434951.o(.text.msh_exec) refers to lto-llvm-434951.o(.text.rt_kprintf) for rt_kprintf
    lto-llvm-434951.o(.ARM.exidx.text.msh_exec) refers to lto-llvm-434951.o(.text.msh_exec) for [Anonymous Symbol]
    lto-llvm-434951.o(.text._msh_exec_cmd) refers to lto-llvm-434951.o(.rodata.str1.1) for .L.str.6.70
    lto-llvm-434951.o(.text._msh_exec_cmd) refers to lto-llvm-434951.o(.text.rt_assert_handler) for rt_assert_handler
    lto-llvm-434951.o(.text._msh_exec_cmd) refers to lto-llvm-434951.o(.text.msh_get_cmd) for msh_get_cmd
    lto-llvm-434951.o(.text._msh_exec_cmd) refers to lto-llvm-434951.o(.text.msh_split) for msh_split
    lto-llvm-434951.o(.ARM.exidx.text._msh_exec_cmd) refers to lto-llvm-434951.o(.text._msh_exec_cmd) for [Anonymous Symbol]
    lto-llvm-434951.o(.text.msh_get_cmd) refers to lto-llvm-434951.o(.bss) for _syscall_table_begin
    lto-llvm-434951.o(.text.msh_get_cmd) refers to lto-llvm-434951.o(.rodata.str1.1) for .L.str.1.65
    lto-llvm-434951.o(.text.msh_get_cmd) refers to strncmp.o(.text) for strncmp
    lto-llvm-434951.o(.ARM.exidx.text.msh_get_cmd) refers to lto-llvm-434951.o(.text.msh_get_cmd) for [Anonymous Symbol]
    lto-llvm-434951.o(.text.msh_split) refers to lto-llvm-434951.o(.rodata.str1.1) for .L.str.8.72
    lto-llvm-434951.o(.text.msh_split) refers to lto-llvm-434951.o(.text.rt_kprintf) for rt_kprintf
    lto-llvm-434951.o(.ARM.exidx.text.msh_split) refers to lto-llvm-434951.o(.text.msh_split) for [Anonymous Symbol]
    lto-llvm-434951.o(.text.msh_auto_complete) refers to lto-llvm-434951.o(.text.msh_help) for msh_help
    lto-llvm-434951.o(.text.msh_auto_complete) refers to lto-llvm-434951.o(.bss) for _syscall_table_begin
    lto-llvm-434951.o(.text.msh_auto_complete) refers to lto-llvm-434951.o(.rodata.str1.1) for .L.str.1.65
    lto-llvm-434951.o(.text.msh_auto_complete) refers to strncmp.o(.text) for strncmp
    lto-llvm-434951.o(.text.msh_auto_complete) refers to strlen.o(.text) for strlen
    lto-llvm-434951.o(.text.msh_auto_complete) refers to lto-llvm-434951.o(.text.str_common) for str_common
    lto-llvm-434951.o(.text.msh_auto_complete) refers to lto-llvm-434951.o(.text.rt_kprintf) for rt_kprintf
    lto-llvm-434951.o(.text.msh_auto_complete) refers to lto-llvm-434951.o(.text.rt_strncpy) for rt_strncpy
    lto-llvm-434951.o(.ARM.exidx.text.msh_auto_complete) refers to lto-llvm-434951.o(.text.msh_auto_complete) for [Anonymous Symbol]
    lto-llvm-434951.o(.ARM.exidx.text.str_common) refers to lto-llvm-434951.o(.text.str_common) for [Anonymous Symbol]
    lto-llvm-434951.o(.text.finsh_system_init) refers to lto-llvm-434951.o(.text.finsh_system_function_init) for finsh_system_function_init
    lto-llvm-434951.o(.text.finsh_system_init) refers to lto-llvm-434951.o(.text.rt_calloc) for rt_calloc
    lto-llvm-434951.o(.text.finsh_system_init) refers to lto-llvm-434951.o(.bss) for shell
    lto-llvm-434951.o(.text.finsh_system_init) refers to lto-llvm-434951.o(.rodata.str1.1) for .L.str.10.79
    lto-llvm-434951.o(.text.finsh_system_init) refers to lto-llvm-434951.o(.text.rt_kprintf) for rt_kprintf
    lto-llvm-434951.o(.text.finsh_system_init) refers to lto-llvm-434951.o(.text.finsh_thread_entry) for finsh_thread_entry
    lto-llvm-434951.o(.text.finsh_system_init) refers to lto-llvm-434951.o(.text.rt_thread_create) for rt_thread_create
    lto-llvm-434951.o(.text.finsh_system_init) refers to lto-llvm-434951.o(.text.rt_sem_init) for rt_sem_init
    lto-llvm-434951.o(.text.finsh_system_init) refers to lto-llvm-434951.o(.text.finsh_set_prompt_mode) for finsh_set_prompt_mode
    lto-llvm-434951.o(.text.finsh_system_init) refers to lto-llvm-434951.o(.text.rt_thread_startup) for rt_thread_startup
    lto-llvm-434951.o(.ARM.exidx.text.finsh_system_init) refers to lto-llvm-434951.o(.text.finsh_system_init) for [Anonymous Symbol]
    lto-llvm-434951.o(.text.finsh_system_function_init) refers to lto-llvm-434951.o(.bss) for _syscall_table_begin
    lto-llvm-434951.o(.ARM.exidx.text.finsh_system_function_init) refers to lto-llvm-434951.o(.text.finsh_system_function_init) for [Anonymous Symbol]
    lto-llvm-434951.o(.text.finsh_thread_entry) refers to lto-llvm-434951.o(.bss) for shell
    lto-llvm-434951.o(.text.finsh_thread_entry) refers to lto-llvm-434951.o(.text.finsh_get_prompt) for finsh_get_prompt
    lto-llvm-434951.o(.text.finsh_thread_entry) refers to lto-llvm-434951.o(.text.rt_kprintf) for rt_kprintf
    lto-llvm-434951.o(.text.finsh_thread_entry) refers to lto-llvm-434951.o(.text.finsh_getchar) for finsh_getchar
    lto-llvm-434951.o(.text.finsh_thread_entry) refers to lto-llvm-434951.o(.rodata.str1.1) for .L.str.4.83
    lto-llvm-434951.o(.text.finsh_thread_entry) refers to lto-llvm-434951.o(.text.shell_auto_complete) for shell_auto_complete
    lto-llvm-434951.o(.text.finsh_thread_entry) refers to strlen.o(.text) for strlen
    lto-llvm-434951.o(.text.finsh_thread_entry) refers to lto-llvm-434951.o(.text.rt_memmove) for rt_memmove
    lto-llvm-434951.o(.text.finsh_thread_entry) refers to lto-llvm-434951.o(.text.msh_exec) for msh_exec
    lto-llvm-434951.o(.text.finsh_thread_entry) refers to memseta.o(.text) for __aeabi_memclr
    lto-llvm-434951.o(.ARM.exidx.text.finsh_thread_entry) refers to lto-llvm-434951.o(.text.finsh_thread_entry) for [Anonymous Symbol]
    lto-llvm-434951.o(.text.finsh_set_prompt_mode) refers to lto-llvm-434951.o(.bss) for shell
    lto-llvm-434951.o(.text.finsh_set_prompt_mode) refers to lto-llvm-434951.o(.rodata.str1.1) for .L.str.3.82
    lto-llvm-434951.o(.text.finsh_set_prompt_mode) refers to lto-llvm-434951.o(.text.rt_assert_handler) for rt_assert_handler
    lto-llvm-434951.o(.ARM.exidx.text.finsh_set_prompt_mode) refers to lto-llvm-434951.o(.text.finsh_set_prompt_mode) for [Anonymous Symbol]
    lto-llvm-434951.o(.text.finsh_get_prompt) refers to lto-llvm-434951.o(.bss) for shell
    lto-llvm-434951.o(.text.finsh_get_prompt) refers to lto-llvm-434951.o(.rodata.str1.1) for .L.str.90
    lto-llvm-434951.o(.text.finsh_get_prompt) refers to strcpy.o(.text) for strcpy
    lto-llvm-434951.o(.text.finsh_get_prompt) refers to strcat.o(.text) for strcat
    lto-llvm-434951.o(.ARM.exidx.text.finsh_get_prompt) refers to lto-llvm-434951.o(.text.finsh_get_prompt) for [Anonymous Symbol]
    lto-llvm-434951.o(.text.finsh_getchar) refers to lto-llvm-434951.o(.text.rt_hw_console_getchar) for rt_hw_console_getchar
    lto-llvm-434951.o(.ARM.exidx.text.finsh_getchar) refers to lto-llvm-434951.o(.text.finsh_getchar) for [Anonymous Symbol]
    lto-llvm-434951.o(.text.shell_auto_complete) refers to lto-llvm-434951.o(.rodata.str1.1) for .L.str.31.123
    lto-llvm-434951.o(.text.shell_auto_complete) refers to lto-llvm-434951.o(.text.rt_kprintf) for rt_kprintf
    lto-llvm-434951.o(.text.shell_auto_complete) refers to lto-llvm-434951.o(.text.msh_auto_complete) for msh_auto_complete
    lto-llvm-434951.o(.text.shell_auto_complete) refers to lto-llvm-434951.o(.text.finsh_get_prompt) for finsh_get_prompt
    lto-llvm-434951.o(.ARM.exidx.text.shell_auto_complete) refers to lto-llvm-434951.o(.text.shell_auto_complete) for [Anonymous Symbol]
    lto-llvm-434951.o(.text.rt_hw_stack_init) refers to lto-llvm-434951.o(.text.rt_thread_exit) for rt_thread_exit
    lto-llvm-434951.o(.ARM.exidx.text.rt_hw_stack_init) refers to lto-llvm-434951.o(.text.rt_hw_stack_init) for [Anonymous Symbol]
    lto-llvm-434951.o(.text.rt_hw_hard_fault_exception) refers to lto-llvm-434951.o(.rodata.str1.1) for .L.str.94
    lto-llvm-434951.o(.text.rt_hw_hard_fault_exception) refers to lto-llvm-434951.o(.text.rt_kprintf) for rt_kprintf
    lto-llvm-434951.o(.text.rt_hw_hard_fault_exception) refers to lto-llvm-434951.o(.text.rt_thread_self) for rt_thread_self
    lto-llvm-434951.o(.text.rt_hw_hard_fault_exception) refers to lto-llvm-434951.o(.text.list_thread) for list_thread
    lto-llvm-434951.o(.text.rt_hw_hard_fault_exception) refers to lto-llvm-434951.o(.text.hard_fault_track) for hard_fault_track
    lto-llvm-434951.o(.ARM.exidx.text.rt_hw_hard_fault_exception) refers to lto-llvm-434951.o(.text.rt_hw_hard_fault_exception) for [Anonymous Symbol]
    lto-llvm-434951.o(.text.hard_fault_track) refers to lto-llvm-434951.o(.rodata.str1.1) for .L.str.21.113
    lto-llvm-434951.o(.text.hard_fault_track) refers to lto-llvm-434951.o(.text.rt_kprintf) for rt_kprintf
    lto-llvm-434951.o(.text.hard_fault_track) refers to lto-llvm-434951.o(.text.bus_fault_track) for bus_fault_track
    lto-llvm-434951.o(.text.hard_fault_track) refers to lto-llvm-434951.o(.text.mem_manage_fault_track) for mem_manage_fault_track
    lto-llvm-434951.o(.text.hard_fault_track) refers to lto-llvm-434951.o(.text.usage_fault_track) for usage_fault_track
    lto-llvm-434951.o(.ARM.exidx.text.hard_fault_track) refers to lto-llvm-434951.o(.text.hard_fault_track) for [Anonymous Symbol]
    lto-llvm-434951.o(.text.bus_fault_track) refers to lto-llvm-434951.o(.rodata.str1.1) for .L.str.23.131
    lto-llvm-434951.o(.text.bus_fault_track) refers to lto-llvm-434951.o(.text.rt_kprintf) for rt_kprintf
    lto-llvm-434951.o(.ARM.exidx.text.bus_fault_track) refers to lto-llvm-434951.o(.text.bus_fault_track) for [Anonymous Symbol]
    lto-llvm-434951.o(.text.mem_manage_fault_track) refers to lto-llvm-434951.o(.rodata.str1.1) for .L.str.32.124
    lto-llvm-434951.o(.text.mem_manage_fault_track) refers to lto-llvm-434951.o(.text.rt_kprintf) for rt_kprintf
    lto-llvm-434951.o(.ARM.exidx.text.mem_manage_fault_track) refers to lto-llvm-434951.o(.text.mem_manage_fault_track) for [Anonymous Symbol]
    lto-llvm-434951.o(.text.usage_fault_track) refers to lto-llvm-434951.o(.rodata.str1.1) for .L.str.39.115
    lto-llvm-434951.o(.text.usage_fault_track) refers to lto-llvm-434951.o(.text.rt_kprintf) for rt_kprintf
    lto-llvm-434951.o(.ARM.exidx.text.usage_fault_track) refers to lto-llvm-434951.o(.text.usage_fault_track) for [Anonymous Symbol]
    lto-llvm-434951.o(.text.rt_tick_get) refers to lto-llvm-434951.o(.bss) for rt_tick
    lto-llvm-434951.o(.ARM.exidx.text.rt_tick_get) refers to lto-llvm-434951.o(.text.rt_tick_get) for [Anonymous Symbol]
    lto-llvm-434951.o(.text.rt_tick_increase) refers to lto-llvm-434951.o(.bss) for rt_tick
    lto-llvm-434951.o(.text.rt_tick_increase) refers to lto-llvm-434951.o(.text.rt_thread_self) for rt_thread_self
    lto-llvm-434951.o(.text.rt_tick_increase) refers to lto-llvm-434951.o(.text.rt_thread_yield) for rt_thread_yield
    lto-llvm-434951.o(.text.rt_tick_increase) refers to lto-llvm-434951.o(.text.rt_timer_check) for rt_timer_check
    lto-llvm-434951.o(.ARM.exidx.text.rt_tick_increase) refers to lto-llvm-434951.o(.text.rt_tick_increase) for [Anonymous Symbol]
    lto-llvm-434951.o(.ARM.exidx.text.rt_tick_from_millisecond) refers to lto-llvm-434951.o(.text.rt_tick_from_millisecond) for [Anonymous Symbol]
    lto-llvm-434951.o(.ARM.exidx.text.rti_start) refers to lto-llvm-434951.o(.text.rti_start) for [Anonymous Symbol]
    lto-llvm-434951.o(.ARM.exidx.text.rti_board_start) refers to lto-llvm-434951.o(.text.rti_board_start) for [Anonymous Symbol]
    lto-llvm-434951.o(.ARM.exidx.text.rti_board_end) refers to lto-llvm-434951.o(.text.rti_board_end) for [Anonymous Symbol]
    lto-llvm-434951.o(.ARM.exidx.text.rti_end) refers to lto-llvm-434951.o(.text.rti_end) for [Anonymous Symbol]
    lto-llvm-434951.o(.text.rt_components_board_init) refers to lto-llvm-434951.o(.rti_fn.0.end) for __rt_init_desc_rti_board_start
    lto-llvm-434951.o(.text.rt_components_board_init) refers to lto-llvm-434951.o(.rti_fn.1.end) for __rt_init_desc_rti_board_end
    lto-llvm-434951.o(.text.rt_components_board_init) refers to lto-llvm-434951.o(.rodata.str1.1) for .L.str.148
    lto-llvm-434951.o(.text.rt_components_board_init) refers to lto-llvm-434951.o(.text.rt_kprintf) for rt_kprintf
    lto-llvm-434951.o(.ARM.exidx.text.rt_components_board_init) refers to lto-llvm-434951.o(.text.rt_components_board_init) for [Anonymous Symbol]
    lto-llvm-434951.o(.text.rt_components_init) refers to lto-llvm-434951.o(.rodata.str1.1) for .L.str.2.150
    lto-llvm-434951.o(.text.rt_components_init) refers to lto-llvm-434951.o(.text.rt_kprintf) for rt_kprintf
    lto-llvm-434951.o(.text.rt_components_init) refers to lto-llvm-434951.o(.rti_fn.1.end) for __rt_init_desc_rti_board_end
    lto-llvm-434951.o(.text.rt_components_init) refers to lto-llvm-434951.o(.rti_fn.6.end) for __rt_init_desc_rti_end
    lto-llvm-434951.o(.ARM.exidx.text.rt_components_init) refers to lto-llvm-434951.o(.text.rt_components_init) for [Anonymous Symbol]
    lto-llvm-434951.o(.text.$Sub$$main) refers to lto-llvm-434951.o(.text.rtthread_startup) for rtthread_startup
    lto-llvm-434951.o(.ARM.exidx.text.$Sub$$main) refers to lto-llvm-434951.o(.text.$Sub$$main) for [Anonymous Symbol]
    lto-llvm-434951.o(.text.rtthread_startup) refers to context_rvds.o(.text) for rt_hw_interrupt_disable
    lto-llvm-434951.o(.text.rtthread_startup) refers to lto-llvm-434951.o(.text.rt_hw_board_init) for rt_hw_board_init
    lto-llvm-434951.o(.text.rtthread_startup) refers to lto-llvm-434951.o(.text.rt_show_version) for rt_show_version
    lto-llvm-434951.o(.text.rtthread_startup) refers to lto-llvm-434951.o(.text.rt_system_timer_init) for rt_system_timer_init
    lto-llvm-434951.o(.text.rtthread_startup) refers to lto-llvm-434951.o(.text.rt_system_scheduler_init) for rt_system_scheduler_init
    lto-llvm-434951.o(.text.rtthread_startup) refers to lto-llvm-434951.o(.text.rt_application_init) for rt_application_init
    lto-llvm-434951.o(.text.rtthread_startup) refers to lto-llvm-434951.o(.text.rt_system_timer_thread_init) for rt_system_timer_thread_init
    lto-llvm-434951.o(.text.rtthread_startup) refers to lto-llvm-434951.o(.text.rt_thread_idle_init) for rt_thread_idle_init
    lto-llvm-434951.o(.text.rtthread_startup) refers to lto-llvm-434951.o(.text.rt_system_scheduler_start) for rt_system_scheduler_start
    lto-llvm-434951.o(.ARM.exidx.text.rtthread_startup) refers to lto-llvm-434951.o(.text.rtthread_startup) for [Anonymous Symbol]
    lto-llvm-434951.o(.text.rt_application_init) refers to lto-llvm-434951.o(.rodata.str1.1) for .L.str.3.151
    lto-llvm-434951.o(.text.rt_application_init) refers to lto-llvm-434951.o(.text.main_thread_entry) for main_thread_entry
    lto-llvm-434951.o(.text.rt_application_init) refers to lto-llvm-434951.o(.text.rt_thread_create) for rt_thread_create
    lto-llvm-434951.o(.text.rt_application_init) refers to lto-llvm-434951.o(.text.rt_assert_handler) for rt_assert_handler
    lto-llvm-434951.o(.text.rt_application_init) refers to lto-llvm-434951.o(.text.rt_thread_startup) for rt_thread_startup
    lto-llvm-434951.o(.ARM.exidx.text.rt_application_init) refers to lto-llvm-434951.o(.text.rt_application_init) for [Anonymous Symbol]
    lto-llvm-434951.o(.text.main_thread_entry) refers to lto-llvm-434951.o(.text.rt_components_init) for rt_components_init
    lto-llvm-434951.o(.text.main_thread_entry) refers to lto-llvm-434951.o(.text.main) for $Super$$main
    lto-llvm-434951.o(.ARM.exidx.text.main_thread_entry) refers to lto-llvm-434951.o(.text.main_thread_entry) for [Anonymous Symbol]
    lto-llvm-434951.o(.text.rt_thread_idle_sethook) refers to lto-llvm-434951.o(.text.serv_led_sign_idle) for serv_led_sign_idle
    lto-llvm-434951.o(.text.rt_thread_idle_sethook) refers to context_rvds.o(.text) for rt_hw_interrupt_disable
    lto-llvm-434951.o(.text.rt_thread_idle_sethook) refers to lto-llvm-434951.o(.bss) for idle_hook_list
    lto-llvm-434951.o(.ARM.exidx.text.rt_thread_idle_sethook) refers to lto-llvm-434951.o(.text.rt_thread_idle_sethook) for [Anonymous Symbol]
    lto-llvm-434951.o(.text.rt_thread_idle_excute) refers to context_rvds.o(.text) for rt_hw_interrupt_disable
    lto-llvm-434951.o(.text.rt_thread_idle_excute) refers to lto-llvm-434951.o(.text.rt_interrupt_get_nest) for rt_interrupt_get_nest
    lto-llvm-434951.o(.text.rt_thread_idle_excute) refers to lto-llvm-434951.o(.rodata.str1.1) for .L.str.3.267
    lto-llvm-434951.o(.text.rt_thread_idle_excute) refers to lto-llvm-434951.o(.text.rt_kprintf) for rt_kprintf
    lto-llvm-434951.o(.text.rt_thread_idle_excute) refers to lto-llvm-434951.o(.text.rt_assert_handler) for rt_assert_handler
    lto-llvm-434951.o(.text.rt_thread_idle_excute) refers to lto-llvm-434951.o(.text._has_defunct_thread) for _has_defunct_thread
    lto-llvm-434951.o(.text.rt_thread_idle_excute) refers to lto-llvm-434951.o(.bss) for rt_thread_defunct
    lto-llvm-434951.o(.text.rt_thread_idle_excute) refers to lto-llvm-434951.o(.text.rt_list_remove) for rt_list_remove
    lto-llvm-434951.o(.text.rt_thread_idle_excute) refers to lto-llvm-434951.o(.text.rt_free) for rt_free
    lto-llvm-434951.o(.text.rt_thread_idle_excute) refers to lto-llvm-434951.o(.text.rt_object_delete) for rt_object_delete
    lto-llvm-434951.o(.ARM.exidx.text.rt_thread_idle_excute) refers to lto-llvm-434951.o(.text.rt_thread_idle_excute) for [Anonymous Symbol]
    lto-llvm-434951.o(.text._has_defunct_thread) refers to lto-llvm-434951.o(.bss) for rt_thread_defunct
    lto-llvm-434951.o(.ARM.exidx.text._has_defunct_thread) refers to lto-llvm-434951.o(.text._has_defunct_thread) for [Anonymous Symbol]
    lto-llvm-434951.o(.ARM.exidx.text.rt_list_remove) refers to lto-llvm-434951.o(.text.rt_list_remove) for [Anonymous Symbol]
    lto-llvm-434951.o(.text.rt_thread_idle_init) refers to lto-llvm-434951.o(.bss) for rt_thread_stack
    lto-llvm-434951.o(.text.rt_thread_idle_init) refers to lto-llvm-434951.o(.rodata.str1.1) for .L.str.2.157
    lto-llvm-434951.o(.text.rt_thread_idle_init) refers to lto-llvm-434951.o(.text.rt_thread_idle_entry) for rt_thread_idle_entry
    lto-llvm-434951.o(.text.rt_thread_idle_init) refers to lto-llvm-434951.o(.text.rt_thread_init) for rt_thread_init
    lto-llvm-434951.o(.text.rt_thread_idle_init) refers to lto-llvm-434951.o(.text.rt_thread_startup) for rt_thread_startup
    lto-llvm-434951.o(.ARM.exidx.text.rt_thread_idle_init) refers to lto-llvm-434951.o(.text.rt_thread_idle_init) for [Anonymous Symbol]
    lto-llvm-434951.o(.text.rt_thread_idle_entry) refers to lto-llvm-434951.o(.bss) for idle_hook_list
    lto-llvm-434951.o(.text.rt_thread_idle_entry) refers to lto-llvm-434951.o(.text.rt_thread_idle_excute) for rt_thread_idle_excute
    lto-llvm-434951.o(.ARM.exidx.text.rt_thread_idle_entry) refers to lto-llvm-434951.o(.text.rt_thread_idle_entry) for [Anonymous Symbol]
    lto-llvm-434951.o(.text.rt_sem_init) refers to lto-llvm-434951.o(.rodata.str1.1) for .L.str.160
    lto-llvm-434951.o(.text.rt_sem_init) refers to lto-llvm-434951.o(.text.rt_assert_handler) for rt_assert_handler
    lto-llvm-434951.o(.text.rt_sem_init) refers to lto-llvm-434951.o(.text.rt_object_init) for rt_object_init
    lto-llvm-434951.o(.text.rt_sem_init) refers to lto-llvm-434951.o(.text.rt_ipc_object_init) for rt_ipc_object_init
    lto-llvm-434951.o(.ARM.exidx.text.rt_sem_init) refers to lto-llvm-434951.o(.text.rt_sem_init) for [Anonymous Symbol]
    lto-llvm-434951.o(.text.rt_ipc_object_init) refers to lto-llvm-434951.o(.text.rt_list_init) for rt_list_init
    lto-llvm-434951.o(.ARM.exidx.text.rt_ipc_object_init) refers to lto-llvm-434951.o(.text.rt_ipc_object_init) for [Anonymous Symbol]
    lto-llvm-434951.o(.ARM.exidx.text.rt_list_init) refers to lto-llvm-434951.o(.text.rt_list_init) for [Anonymous Symbol]
    lto-llvm-434951.o(.ARM.exidx.text.rt_list_isempty.164) refers to lto-llvm-434951.o(.text.rt_list_isempty.164) for [Anonymous Symbol]
    lto-llvm-434951.o(.text.rt_sem_create) refers to lto-llvm-434951.o(.rodata.str1.1) for .L.str.369
    lto-llvm-434951.o(.text.rt_sem_create) refers to context_rvds.o(.text) for rt_hw_interrupt_disable
    lto-llvm-434951.o(.text.rt_sem_create) refers to lto-llvm-434951.o(.text.rt_interrupt_get_nest) for rt_interrupt_get_nest
    lto-llvm-434951.o(.text.rt_sem_create) refers to lto-llvm-434951.o(.text.rt_kprintf) for rt_kprintf
    lto-llvm-434951.o(.text.rt_sem_create) refers to lto-llvm-434951.o(.text.rt_assert_handler) for rt_assert_handler
    lto-llvm-434951.o(.text.rt_sem_create) refers to lto-llvm-434951.o(.text.rt_object_allocate) for rt_object_allocate
    lto-llvm-434951.o(.text.rt_sem_create) refers to lto-llvm-434951.o(.text.rt_ipc_object_init) for rt_ipc_object_init
    lto-llvm-434951.o(.ARM.exidx.text.rt_sem_create) refers to lto-llvm-434951.o(.text.rt_sem_create) for [Anonymous Symbol]
    lto-llvm-434951.o(.text.rt_sem_take) refers to lto-llvm-434951.o(.rodata.str1.1) for .L.str.160
    lto-llvm-434951.o(.text.rt_sem_take) refers to lto-llvm-434951.o(.text.rt_assert_handler) for rt_assert_handler
    lto-llvm-434951.o(.text.rt_sem_take) refers to lto-llvm-434951.o(.text.rt_object_get_type) for rt_object_get_type
    lto-llvm-434951.o(.text.rt_sem_take) refers to context_rvds.o(.text) for rt_hw_interrupt_disable
    lto-llvm-434951.o(.text.rt_sem_take) refers to lto-llvm-434951.o(.text.rt_thread_self) for rt_thread_self
    lto-llvm-434951.o(.text.rt_sem_take) refers to lto-llvm-434951.o(.text.rt_kprintf) for rt_kprintf
    lto-llvm-434951.o(.text.rt_sem_take) refers to lto-llvm-434951.o(.text.rt_interrupt_get_nest) for rt_interrupt_get_nest
    lto-llvm-434951.o(.text.rt_sem_take) refers to lto-llvm-434951.o(.text.rt_ipc_list_suspend) for rt_ipc_list_suspend
    lto-llvm-434951.o(.text.rt_sem_take) refers to lto-llvm-434951.o(.text.rt_timer_control) for rt_timer_control
    lto-llvm-434951.o(.text.rt_sem_take) refers to lto-llvm-434951.o(.text.rt_timer_start) for rt_timer_start
    lto-llvm-434951.o(.text.rt_sem_take) refers to lto-llvm-434951.o(.text.rt_schedule) for rt_schedule
    lto-llvm-434951.o(.ARM.exidx.text.rt_sem_take) refers to lto-llvm-434951.o(.text.rt_sem_take) for [Anonymous Symbol]
    lto-llvm-434951.o(.text.rt_ipc_list_suspend) refers to lto-llvm-434951.o(.text.rt_thread_suspend) for rt_thread_suspend
    lto-llvm-434951.o(.text.rt_ipc_list_suspend) refers to lto-llvm-434951.o(.text.rt_list_insert_before) for rt_list_insert_before
    lto-llvm-434951.o(.ARM.exidx.text.rt_ipc_list_suspend) refers to lto-llvm-434951.o(.text.rt_ipc_list_suspend) for [Anonymous Symbol]
    lto-llvm-434951.o(.ARM.exidx.text.rt_list_insert_before) refers to lto-llvm-434951.o(.text.rt_list_insert_before) for [Anonymous Symbol]
    lto-llvm-434951.o(.text.rt_sem_release) refers to lto-llvm-434951.o(.rodata.str1.1) for .L.str.160
    lto-llvm-434951.o(.text.rt_sem_release) refers to lto-llvm-434951.o(.text.rt_assert_handler) for rt_assert_handler
    lto-llvm-434951.o(.text.rt_sem_release) refers to lto-llvm-434951.o(.text.rt_object_get_type) for rt_object_get_type
    lto-llvm-434951.o(.text.rt_sem_release) refers to context_rvds.o(.text) for rt_hw_interrupt_disable
    lto-llvm-434951.o(.text.rt_sem_release) refers to lto-llvm-434951.o(.text.rt_list_isempty.164) for rt_list_isempty.164
    lto-llvm-434951.o(.text.rt_sem_release) refers to lto-llvm-434951.o(.text.rt_ipc_list_resume) for rt_ipc_list_resume
    lto-llvm-434951.o(.text.rt_sem_release) refers to lto-llvm-434951.o(.text.rt_schedule) for rt_schedule
    lto-llvm-434951.o(.ARM.exidx.text.rt_sem_release) refers to lto-llvm-434951.o(.text.rt_sem_release) for [Anonymous Symbol]
    lto-llvm-434951.o(.text.rt_ipc_list_resume) refers to lto-llvm-434951.o(.text.rt_thread_resume) for rt_thread_resume
    lto-llvm-434951.o(.ARM.exidx.text.rt_ipc_list_resume) refers to lto-llvm-434951.o(.text.rt_ipc_list_resume) for [Anonymous Symbol]
    lto-llvm-434951.o(.text.rt_mutex_create) refers to lto-llvm-434951.o(.rodata.str1.1) for .L.str.1.370
    lto-llvm-434951.o(.text.rt_mutex_create) refers to context_rvds.o(.text) for rt_hw_interrupt_disable
    lto-llvm-434951.o(.text.rt_mutex_create) refers to lto-llvm-434951.o(.text.rt_interrupt_get_nest) for rt_interrupt_get_nest
    lto-llvm-434951.o(.text.rt_mutex_create) refers to lto-llvm-434951.o(.text.rt_kprintf) for rt_kprintf
    lto-llvm-434951.o(.text.rt_mutex_create) refers to lto-llvm-434951.o(.text.rt_assert_handler) for rt_assert_handler
    lto-llvm-434951.o(.text.rt_mutex_create) refers to lto-llvm-434951.o(.text.rt_object_allocate) for rt_object_allocate
    lto-llvm-434951.o(.text.rt_mutex_create) refers to lto-llvm-434951.o(.text.rt_ipc_object_init) for rt_ipc_object_init
    lto-llvm-434951.o(.ARM.exidx.text.rt_mutex_create) refers to lto-llvm-434951.o(.text.rt_mutex_create) for [Anonymous Symbol]
    lto-llvm-434951.o(.text.rt_mutex_take) refers to context_rvds.o(.text) for rt_hw_interrupt_disable
    lto-llvm-434951.o(.text.rt_mutex_take) refers to lto-llvm-434951.o(.text.rt_thread_self) for rt_thread_self
    lto-llvm-434951.o(.text.rt_mutex_take) refers to lto-llvm-434951.o(.rodata.str1.1) for .L.str.7.168
    lto-llvm-434951.o(.text.rt_mutex_take) refers to lto-llvm-434951.o(.text.rt_kprintf) for rt_kprintf
    lto-llvm-434951.o(.text.rt_mutex_take) refers to lto-llvm-434951.o(.text.rt_assert_handler) for rt_assert_handler
    lto-llvm-434951.o(.text.rt_mutex_take) refers to lto-llvm-434951.o(.text.rt_interrupt_get_nest) for rt_interrupt_get_nest
    lto-llvm-434951.o(.text.rt_mutex_take) refers to lto-llvm-434951.o(.text.rt_object_get_type) for rt_object_get_type
    lto-llvm-434951.o(.text.rt_mutex_take) refers to lto-llvm-434951.o(.text.rt_thread_control) for rt_thread_control
    lto-llvm-434951.o(.text.rt_mutex_take) refers to lto-llvm-434951.o(.text.rt_ipc_list_suspend) for rt_ipc_list_suspend
    lto-llvm-434951.o(.text.rt_mutex_take) refers to lto-llvm-434951.o(.text.rt_timer_control) for rt_timer_control
    lto-llvm-434951.o(.text.rt_mutex_take) refers to lto-llvm-434951.o(.text.rt_timer_start) for rt_timer_start
    lto-llvm-434951.o(.text.rt_mutex_take) refers to lto-llvm-434951.o(.text.rt_schedule) for rt_schedule
    lto-llvm-434951.o(.ARM.exidx.text.rt_mutex_take) refers to lto-llvm-434951.o(.text.rt_mutex_take) for [Anonymous Symbol]
    lto-llvm-434951.o(.text.rt_mutex_release) refers to lto-llvm-434951.o(.rodata.str1.1) for .L.str.8.169
    lto-llvm-434951.o(.text.rt_mutex_release) refers to lto-llvm-434951.o(.text.rt_assert_handler) for rt_assert_handler
    lto-llvm-434951.o(.text.rt_mutex_release) refers to lto-llvm-434951.o(.text.rt_object_get_type) for rt_object_get_type
    lto-llvm-434951.o(.text.rt_mutex_release) refers to context_rvds.o(.text) for rt_hw_interrupt_disable
    lto-llvm-434951.o(.text.rt_mutex_release) refers to lto-llvm-434951.o(.text.rt_thread_self) for rt_thread_self
    lto-llvm-434951.o(.text.rt_mutex_release) refers to lto-llvm-434951.o(.text.rt_kprintf) for rt_kprintf
    lto-llvm-434951.o(.text.rt_mutex_release) refers to lto-llvm-434951.o(.text.rt_interrupt_get_nest) for rt_interrupt_get_nest
    lto-llvm-434951.o(.text.rt_mutex_release) refers to lto-llvm-434951.o(.text.rt_thread_control) for rt_thread_control
    lto-llvm-434951.o(.text.rt_mutex_release) refers to lto-llvm-434951.o(.text.rt_list_isempty.164) for rt_list_isempty.164
    lto-llvm-434951.o(.text.rt_mutex_release) refers to lto-llvm-434951.o(.text.rt_ipc_list_resume) for rt_ipc_list_resume
    lto-llvm-434951.o(.text.rt_mutex_release) refers to lto-llvm-434951.o(.text.rt_schedule) for rt_schedule
    lto-llvm-434951.o(.ARM.exidx.text.rt_mutex_release) refers to lto-llvm-434951.o(.text.rt_mutex_release) for [Anonymous Symbol]
    lto-llvm-434951.o(.text.rt_event_create) refers to context_rvds.o(.text) for rt_hw_interrupt_disable
    lto-llvm-434951.o(.text.rt_event_create) refers to lto-llvm-434951.o(.text.rt_interrupt_get_nest) for rt_interrupt_get_nest
    lto-llvm-434951.o(.text.rt_event_create) refers to lto-llvm-434951.o(.rodata.str1.1) for .L.str.3.267
    lto-llvm-434951.o(.text.rt_event_create) refers to lto-llvm-434951.o(.text.rt_kprintf) for rt_kprintf
    lto-llvm-434951.o(.text.rt_event_create) refers to lto-llvm-434951.o(.text.rt_assert_handler) for rt_assert_handler
    lto-llvm-434951.o(.text.rt_event_create) refers to lto-llvm-434951.o(.text.rt_object_allocate) for rt_object_allocate
    lto-llvm-434951.o(.text.rt_event_create) refers to lto-llvm-434951.o(.text.rt_ipc_object_init) for rt_ipc_object_init
    lto-llvm-434951.o(.ARM.exidx.text.rt_event_create) refers to lto-llvm-434951.o(.text.rt_event_create) for [Anonymous Symbol]
    lto-llvm-434951.o(.text.rt_event_send) refers to lto-llvm-434951.o(.rodata.str1.1) for .L.str.12.173
    lto-llvm-434951.o(.text.rt_event_send) refers to lto-llvm-434951.o(.text.rt_assert_handler) for rt_assert_handler
    lto-llvm-434951.o(.text.rt_event_send) refers to lto-llvm-434951.o(.text.rt_object_get_type) for rt_object_get_type
    lto-llvm-434951.o(.text.rt_event_send) refers to context_rvds.o(.text) for rt_hw_interrupt_disable
    lto-llvm-434951.o(.text.rt_event_send) refers to lto-llvm-434951.o(.text.rt_list_isempty.164) for rt_list_isempty.164
    lto-llvm-434951.o(.text.rt_event_send) refers to lto-llvm-434951.o(.text.rt_thread_resume) for rt_thread_resume
    lto-llvm-434951.o(.text.rt_event_send) refers to lto-llvm-434951.o(.text.rt_schedule) for rt_schedule
    lto-llvm-434951.o(.ARM.exidx.text.rt_event_send) refers to lto-llvm-434951.o(.text.rt_event_send) for [Anonymous Symbol]
    lto-llvm-434951.o(.text.rt_event_recv) refers to context_rvds.o(.text) for rt_hw_interrupt_disable
    lto-llvm-434951.o(.text.rt_event_recv) refers to lto-llvm-434951.o(.text.rt_thread_self) for rt_thread_self
    lto-llvm-434951.o(.text.rt_event_recv) refers to lto-llvm-434951.o(.rodata.str1.1) for .L.str.7.168
    lto-llvm-434951.o(.text.rt_event_recv) refers to lto-llvm-434951.o(.text.rt_kprintf) for rt_kprintf
    lto-llvm-434951.o(.text.rt_event_recv) refers to lto-llvm-434951.o(.text.rt_assert_handler) for rt_assert_handler
    lto-llvm-434951.o(.text.rt_event_recv) refers to lto-llvm-434951.o(.text.rt_interrupt_get_nest) for rt_interrupt_get_nest
    lto-llvm-434951.o(.text.rt_event_recv) refers to lto-llvm-434951.o(.text.rt_object_get_type) for rt_object_get_type
    lto-llvm-434951.o(.text.rt_event_recv) refers to lto-llvm-434951.o(.text.rt_ipc_list_suspend) for rt_ipc_list_suspend
    lto-llvm-434951.o(.text.rt_event_recv) refers to lto-llvm-434951.o(.text.rt_timer_control) for rt_timer_control
    lto-llvm-434951.o(.text.rt_event_recv) refers to lto-llvm-434951.o(.text.rt_timer_start) for rt_timer_start
    lto-llvm-434951.o(.text.rt_event_recv) refers to lto-llvm-434951.o(.text.rt_schedule) for rt_schedule
    lto-llvm-434951.o(.ARM.exidx.text.rt_event_recv) refers to lto-llvm-434951.o(.text.rt_event_recv) for [Anonymous Symbol]
    lto-llvm-434951.o(.text.rt_mb_create) refers to lto-llvm-434951.o(.rodata.str1.1) for .L.str.3.372
    lto-llvm-434951.o(.text.rt_mb_create) refers to context_rvds.o(.text) for rt_hw_interrupt_disable
    lto-llvm-434951.o(.text.rt_mb_create) refers to lto-llvm-434951.o(.text.rt_interrupt_get_nest) for rt_interrupt_get_nest
    lto-llvm-434951.o(.text.rt_mb_create) refers to lto-llvm-434951.o(.text.rt_kprintf) for rt_kprintf
    lto-llvm-434951.o(.text.rt_mb_create) refers to lto-llvm-434951.o(.text.rt_assert_handler) for rt_assert_handler
    lto-llvm-434951.o(.text.rt_mb_create) refers to lto-llvm-434951.o(.text.rt_object_allocate) for rt_object_allocate
    lto-llvm-434951.o(.text.rt_mb_create) refers to lto-llvm-434951.o(.text.rt_ipc_object_init) for rt_ipc_object_init
    lto-llvm-434951.o(.text.rt_mb_create) refers to lto-llvm-434951.o(.text.rt_malloc) for rt_malloc
    lto-llvm-434951.o(.text.rt_mb_create) refers to lto-llvm-434951.o(.text.rt_object_delete) for rt_object_delete
    lto-llvm-434951.o(.text.rt_mb_create) refers to lto-llvm-434951.o(.text.rt_list_init) for rt_list_init
    lto-llvm-434951.o(.ARM.exidx.text.rt_mb_create) refers to lto-llvm-434951.o(.text.rt_mb_create) for [Anonymous Symbol]
    lto-llvm-434951.o(.text.rt_mb_send_wait) refers to lto-llvm-434951.o(.rodata.str1.1) for .L.str.16.177
    lto-llvm-434951.o(.text.rt_mb_send_wait) refers to lto-llvm-434951.o(.text.rt_assert_handler) for rt_assert_handler
    lto-llvm-434951.o(.text.rt_mb_send_wait) refers to lto-llvm-434951.o(.text.rt_object_get_type) for rt_object_get_type
    lto-llvm-434951.o(.text.rt_mb_send_wait) refers to lto-llvm-434951.o(.text.rt_thread_self) for rt_thread_self
    lto-llvm-434951.o(.text.rt_mb_send_wait) refers to context_rvds.o(.text) for rt_hw_interrupt_disable
    lto-llvm-434951.o(.text.rt_mb_send_wait) refers to lto-llvm-434951.o(.text.rt_kprintf) for rt_kprintf
    lto-llvm-434951.o(.text.rt_mb_send_wait) refers to lto-llvm-434951.o(.text.rt_interrupt_get_nest) for rt_interrupt_get_nest
    lto-llvm-434951.o(.text.rt_mb_send_wait) refers to lto-llvm-434951.o(.text.rt_ipc_list_suspend) for rt_ipc_list_suspend
    lto-llvm-434951.o(.text.rt_mb_send_wait) refers to lto-llvm-434951.o(.text.rt_tick_get) for rt_tick_get
    lto-llvm-434951.o(.text.rt_mb_send_wait) refers to lto-llvm-434951.o(.text.rt_timer_control) for rt_timer_control
    lto-llvm-434951.o(.text.rt_mb_send_wait) refers to lto-llvm-434951.o(.text.rt_timer_start) for rt_timer_start
    lto-llvm-434951.o(.text.rt_mb_send_wait) refers to lto-llvm-434951.o(.text.rt_schedule) for rt_schedule
    lto-llvm-434951.o(.text.rt_mb_send_wait) refers to lto-llvm-434951.o(.text.rt_list_isempty.164) for rt_list_isempty.164
    lto-llvm-434951.o(.text.rt_mb_send_wait) refers to lto-llvm-434951.o(.text.rt_ipc_list_resume) for rt_ipc_list_resume
    lto-llvm-434951.o(.ARM.exidx.text.rt_mb_send_wait) refers to lto-llvm-434951.o(.text.rt_mb_send_wait) for [Anonymous Symbol]
    lto-llvm-434951.o(.text.rt_mb_send) refers to lto-llvm-434951.o(.text.rt_mb_send_wait) for rt_mb_send_wait
    lto-llvm-434951.o(.ARM.exidx.text.rt_mb_send) refers to lto-llvm-434951.o(.text.rt_mb_send) for [Anonymous Symbol]
    lto-llvm-434951.o(.text.rt_mb_recv) refers to lto-llvm-434951.o(.rodata.str1.1) for .L.str.16.177
    lto-llvm-434951.o(.text.rt_mb_recv) refers to lto-llvm-434951.o(.text.rt_assert_handler) for rt_assert_handler
    lto-llvm-434951.o(.text.rt_mb_recv) refers to lto-llvm-434951.o(.text.rt_object_get_type) for rt_object_get_type
    lto-llvm-434951.o(.text.rt_mb_recv) refers to lto-llvm-434951.o(.text.rt_thread_self) for rt_thread_self
    lto-llvm-434951.o(.text.rt_mb_recv) refers to context_rvds.o(.text) for rt_hw_interrupt_disable
    lto-llvm-434951.o(.text.rt_mb_recv) refers to lto-llvm-434951.o(.text.rt_kprintf) for rt_kprintf
    lto-llvm-434951.o(.text.rt_mb_recv) refers to lto-llvm-434951.o(.text.rt_interrupt_get_nest) for rt_interrupt_get_nest
    lto-llvm-434951.o(.text.rt_mb_recv) refers to lto-llvm-434951.o(.text.rt_ipc_list_suspend) for rt_ipc_list_suspend
    lto-llvm-434951.o(.text.rt_mb_recv) refers to lto-llvm-434951.o(.text.rt_tick_get) for rt_tick_get
    lto-llvm-434951.o(.text.rt_mb_recv) refers to lto-llvm-434951.o(.text.rt_timer_control) for rt_timer_control
    lto-llvm-434951.o(.text.rt_mb_recv) refers to lto-llvm-434951.o(.text.rt_timer_start) for rt_timer_start
    lto-llvm-434951.o(.text.rt_mb_recv) refers to lto-llvm-434951.o(.text.rt_schedule) for rt_schedule
    lto-llvm-434951.o(.text.rt_mb_recv) refers to lto-llvm-434951.o(.text.rt_list_isempty.164) for rt_list_isempty.164
    lto-llvm-434951.o(.text.rt_mb_recv) refers to lto-llvm-434951.o(.text.rt_ipc_list_resume) for rt_ipc_list_resume
    lto-llvm-434951.o(.ARM.exidx.text.rt_mb_recv) refers to lto-llvm-434951.o(.text.rt_mb_recv) for [Anonymous Symbol]
    lto-llvm-434951.o(.text.rt_interrupt_enter) refers to context_rvds.o(.text) for rt_hw_interrupt_disable
    lto-llvm-434951.o(.text.rt_interrupt_enter) refers to lto-llvm-434951.o(.bss) for rt_interrupt_nest
    lto-llvm-434951.o(.ARM.exidx.text.rt_interrupt_enter) refers to lto-llvm-434951.o(.text.rt_interrupt_enter) for [Anonymous Symbol]
    lto-llvm-434951.o(.text.rt_interrupt_leave) refers to context_rvds.o(.text) for rt_hw_interrupt_disable
    lto-llvm-434951.o(.text.rt_interrupt_leave) refers to lto-llvm-434951.o(.bss) for rt_interrupt_nest
    lto-llvm-434951.o(.ARM.exidx.text.rt_interrupt_leave) refers to lto-llvm-434951.o(.text.rt_interrupt_leave) for [Anonymous Symbol]
    lto-llvm-434951.o(.text.rt_interrupt_get_nest) refers to context_rvds.o(.text) for rt_hw_interrupt_disable
    lto-llvm-434951.o(.text.rt_interrupt_get_nest) refers to lto-llvm-434951.o(.bss) for rt_interrupt_nest
    lto-llvm-434951.o(.ARM.exidx.text.rt_interrupt_get_nest) refers to lto-llvm-434951.o(.text.rt_interrupt_get_nest) for [Anonymous Symbol]
    lto-llvm-434951.o(.ARM.exidx.text.rt_memset) refers to lto-llvm-434951.o(.text.rt_memset) for [Anonymous Symbol]
    lto-llvm-434951.o(.ARM.exidx.text.rt_memcpy) refers to lto-llvm-434951.o(.text.rt_memcpy) for [Anonymous Symbol]
    lto-llvm-434951.o(.ARM.exidx.text.rt_memmove) refers to lto-llvm-434951.o(.text.rt_memmove) for [Anonymous Symbol]
    lto-llvm-434951.o(.ARM.exidx.text.rt_strlen) refers to lto-llvm-434951.o(.text.rt_strlen) for [Anonymous Symbol]
    lto-llvm-434951.o(.ARM.exidx.text.rt_strncpy) refers to lto-llvm-434951.o(.text.rt_strncpy) for [Anonymous Symbol]
    lto-llvm-434951.o(.text.strdup) refers to lto-llvm-434951.o(.text.rt_strlen) for rt_strlen
    lto-llvm-434951.o(.text.strdup) refers to lto-llvm-434951.o(.text.rt_malloc) for rt_malloc
    lto-llvm-434951.o(.text.strdup) refers to lto-llvm-434951.o(.text.rt_memcpy) for rt_memcpy
    lto-llvm-434951.o(.ARM.exidx.text.strdup) refers to lto-llvm-434951.o(.text.strdup) for [Anonymous Symbol]
    lto-llvm-434951.o(.text.rt_show_version) refers to lto-llvm-434951.o(.rodata.str1.1) for .L.str.193
    lto-llvm-434951.o(.text.rt_show_version) refers to lto-llvm-434951.o(.text.rt_kprintf) for rt_kprintf
    lto-llvm-434951.o(.ARM.exidx.text.rt_show_version) refers to lto-llvm-434951.o(.text.rt_show_version) for [Anonymous Symbol]
    lto-llvm-434951.o(.text.rt_kprintf) refers to lto-llvm-434951.o(.bss) for rt_kprintf.rt_log_buf
    lto-llvm-434951.o(.text.rt_kprintf) refers to lto-llvm-434951.o(.text.rt_vsnprintf) for rt_vsnprintf
    lto-llvm-434951.o(.text.rt_kprintf) refers to lto-llvm-434951.o(.text.rt_hw_console_output) for rt_hw_console_output
    lto-llvm-434951.o(.ARM.exidx.text.rt_kprintf) refers to lto-llvm-434951.o(.text.rt_kprintf) for [Anonymous Symbol]
    lto-llvm-434951.o(.text.rt_vsnprintf) refers to lto-llvm-434951.o(.text.skip_atoi) for skip_atoi
    lto-llvm-434951.o(.text.rt_vsnprintf) refers to lto-llvm-434951.o(.rodata.str1.1) for .L.str.5.200
    lto-llvm-434951.o(.text.rt_vsnprintf) refers to lto-llvm-434951.o(.text.print_number) for print_number
    lto-llvm-434951.o(.ARM.exidx.text.rt_vsnprintf) refers to lto-llvm-434951.o(.text.rt_vsnprintf) for [Anonymous Symbol]
    lto-llvm-434951.o(.ARM.exidx.text.skip_atoi) refers to lto-llvm-434951.o(.text.skip_atoi) for [Anonymous Symbol]
    lto-llvm-434951.o(.text.print_number) refers to lto-llvm-434951.o(.rodata) for print_number.large_digits
    lto-llvm-434951.o(.text.print_number) refers to lto-llvm-434951.o(.text.divide) for divide
    lto-llvm-434951.o(.ARM.exidx.text.print_number) refers to lto-llvm-434951.o(.text.print_number) for [Anonymous Symbol]
    lto-llvm-434951.o(.ARM.exidx.text.divide) refers to lto-llvm-434951.o(.text.divide) for [Anonymous Symbol]
    lto-llvm-434951.o(.text.rt_vsprintf) refers to lto-llvm-434951.o(.text.rt_vsnprintf) for rt_vsnprintf
    lto-llvm-434951.o(.ARM.exidx.text.rt_vsprintf) refers to lto-llvm-434951.o(.text.rt_vsprintf) for [Anonymous Symbol]
    lto-llvm-434951.o(.text.rt_sprintf) refers to lto-llvm-434951.o(.bss) for strtmp
    lto-llvm-434951.o(.text.rt_sprintf) refers to lto-llvm-434951.o(.rodata.str1.1) for .L.str.396
    lto-llvm-434951.o(.text.rt_sprintf) refers to lto-llvm-434951.o(.text.rt_vsprintf) for rt_vsprintf
    lto-llvm-434951.o(.ARM.exidx.text.rt_sprintf) refers to lto-llvm-434951.o(.text.rt_sprintf) for [Anonymous Symbol]
    lto-llvm-434951.o(.text.__rt_ffs) refers to lto-llvm-434951.o(.rodata) for __lowest_bit_bitmap
    lto-llvm-434951.o(.ARM.exidx.text.__rt_ffs) refers to lto-llvm-434951.o(.text.__rt_ffs) for [Anonymous Symbol]
    lto-llvm-434951.o(.text.rt_assert_handler) refers to lto-llvm-434951.o(.rodata.str1.1) for .L.str.6.203
    lto-llvm-434951.o(.text.rt_assert_handler) refers to lto-llvm-434951.o(.text.rt_kprintf) for rt_kprintf
    lto-llvm-434951.o(.ARM.exidx.text.rt_assert_handler) refers to lto-llvm-434951.o(.text.rt_assert_handler) for [Anonymous Symbol]
    lto-llvm-434951.o(.text.list_mem) refers to lto-llvm-434951.o(.bss) for mem_size_aligned
    lto-llvm-434951.o(.text.list_mem) refers to lto-llvm-434951.o(.rodata.str1.1) for .L.str.14.206
    lto-llvm-434951.o(.text.list_mem) refers to lto-llvm-434951.o(.text.rt_kprintf) for rt_kprintf
    lto-llvm-434951.o(.ARM.exidx.text.list_mem) refers to lto-llvm-434951.o(.text.list_mem) for [Anonymous Symbol]
    lto-llvm-434951.o(.text.rt_system_heap_init) refers to lto-llvm-434951.o(.bss) for rt_heap
    lto-llvm-434951.o(.text.rt_system_heap_init) refers to context_rvds.o(.text) for rt_hw_interrupt_disable
    lto-llvm-434951.o(.text.rt_system_heap_init) refers to lto-llvm-434951.o(.text.rt_interrupt_get_nest) for rt_interrupt_get_nest
    lto-llvm-434951.o(.text.rt_system_heap_init) refers to lto-llvm-434951.o(.rodata.str1.1) for .L.str.3.267
    lto-llvm-434951.o(.text.rt_system_heap_init) refers to lto-llvm-434951.o(.text.rt_kprintf) for rt_kprintf
    lto-llvm-434951.o(.text.rt_system_heap_init) refers to lto-llvm-434951.o(.text.rt_assert_handler) for rt_assert_handler
    lto-llvm-434951.o(.text.rt_system_heap_init) refers to lto-llvm-434951.o(.text.rt_sem_init) for rt_sem_init
    lto-llvm-434951.o(.ARM.exidx.text.rt_system_heap_init) refers to lto-llvm-434951.o(.text.rt_system_heap_init) for [Anonymous Symbol]
    lto-llvm-434951.o(.text.rt_malloc) refers to context_rvds.o(.text) for rt_hw_interrupt_disable
    lto-llvm-434951.o(.text.rt_malloc) refers to lto-llvm-434951.o(.text.rt_interrupt_get_nest) for rt_interrupt_get_nest
    lto-llvm-434951.o(.text.rt_malloc) refers to lto-llvm-434951.o(.rodata.str1.1) for .L.str.3.267
    lto-llvm-434951.o(.text.rt_malloc) refers to lto-llvm-434951.o(.text.rt_kprintf) for rt_kprintf
    lto-llvm-434951.o(.text.rt_malloc) refers to lto-llvm-434951.o(.text.rt_assert_handler) for rt_assert_handler
    lto-llvm-434951.o(.text.rt_malloc) refers to lto-llvm-434951.o(.bss) for mem_size_aligned
    lto-llvm-434951.o(.text.rt_malloc) refers to lto-llvm-434951.o(.text.rt_sem_take) for rt_sem_take
    lto-llvm-434951.o(.text.rt_malloc) refers to lto-llvm-434951.o(.text.rt_sem_release) for rt_sem_release
    lto-llvm-434951.o(.ARM.exidx.text.rt_malloc) refers to lto-llvm-434951.o(.text.rt_malloc) for [Anonymous Symbol]
    lto-llvm-434951.o(.text.rt_free) refers to context_rvds.o(.text) for rt_hw_interrupt_disable
    lto-llvm-434951.o(.text.rt_free) refers to lto-llvm-434951.o(.text.rt_interrupt_get_nest) for rt_interrupt_get_nest
    lto-llvm-434951.o(.text.rt_free) refers to lto-llvm-434951.o(.rodata.str1.1) for .L.str.3.267
    lto-llvm-434951.o(.text.rt_free) refers to lto-llvm-434951.o(.text.rt_kprintf) for rt_kprintf
    lto-llvm-434951.o(.text.rt_free) refers to lto-llvm-434951.o(.text.rt_assert_handler) for rt_assert_handler
    lto-llvm-434951.o(.text.rt_free) refers to lto-llvm-434951.o(.bss) for heap_ptr
    lto-llvm-434951.o(.text.rt_free) refers to lto-llvm-434951.o(.text.rt_sem_take) for rt_sem_take
    lto-llvm-434951.o(.text.rt_free) refers to lto-llvm-434951.o(.text.plug_holes) for plug_holes
    lto-llvm-434951.o(.text.rt_free) refers to lto-llvm-434951.o(.text.rt_sem_release) for rt_sem_release
    lto-llvm-434951.o(.ARM.exidx.text.rt_free) refers to lto-llvm-434951.o(.text.rt_free) for [Anonymous Symbol]
    lto-llvm-434951.o(.text.plug_holes) refers to lto-llvm-434951.o(.bss) for heap_ptr
    lto-llvm-434951.o(.text.plug_holes) refers to lto-llvm-434951.o(.rodata.str1.1) for .L.str.17.224
    lto-llvm-434951.o(.text.plug_holes) refers to lto-llvm-434951.o(.text.rt_assert_handler) for rt_assert_handler
    lto-llvm-434951.o(.ARM.exidx.text.plug_holes) refers to lto-llvm-434951.o(.text.plug_holes) for [Anonymous Symbol]
    lto-llvm-434951.o(.text.rt_calloc) refers to lto-llvm-434951.o(.text.rt_malloc) for rt_malloc
    lto-llvm-434951.o(.text.rt_calloc) refers to lto-llvm-434951.o(.text.rt_memset) for rt_memset
    lto-llvm-434951.o(.ARM.exidx.text.rt_calloc) refers to lto-llvm-434951.o(.text.rt_calloc) for [Anonymous Symbol]
    lto-llvm-434951.o(.text.rt_object_get_information) refers to lto-llvm-434951.o(.data) for rt_object_container
    lto-llvm-434951.o(.ARM.exidx.text.rt_object_get_information) refers to lto-llvm-434951.o(.text.rt_object_get_information) for [Anonymous Symbol]
    lto-llvm-434951.o(.text.rt_object_init) refers to lto-llvm-434951.o(.text.rt_object_get_information) for rt_object_get_information
    lto-llvm-434951.o(.text.rt_object_init) refers to lto-llvm-434951.o(.rodata.str1.1) for .L.str.258
    lto-llvm-434951.o(.text.rt_object_init) refers to lto-llvm-434951.o(.text.rt_assert_handler) for rt_assert_handler
    lto-llvm-434951.o(.text.rt_object_init) refers to lto-llvm-434951.o(.text.rt_enter_critical) for rt_enter_critical
    lto-llvm-434951.o(.text.rt_object_init) refers to lto-llvm-434951.o(.text.rt_exit_critical) for rt_exit_critical
    lto-llvm-434951.o(.text.rt_object_init) refers to lto-llvm-434951.o(.text.rt_strncpy) for rt_strncpy
    lto-llvm-434951.o(.text.rt_object_init) refers to context_rvds.o(.text) for rt_hw_interrupt_disable
    lto-llvm-434951.o(.text.rt_object_init) refers to lto-llvm-434951.o(.text.rt_list_insert_after.260) for rt_list_insert_after.260
    lto-llvm-434951.o(.ARM.exidx.text.rt_object_init) refers to lto-llvm-434951.o(.text.rt_object_init) for [Anonymous Symbol]
    lto-llvm-434951.o(.ARM.exidx.text.rt_list_insert_after.260) refers to lto-llvm-434951.o(.text.rt_list_insert_after.260) for [Anonymous Symbol]
    lto-llvm-434951.o(.text.rt_object_detach) refers to lto-llvm-434951.o(.rodata.str1.1) for .L.str.2.263
    lto-llvm-434951.o(.text.rt_object_detach) refers to lto-llvm-434951.o(.text.rt_assert_handler) for rt_assert_handler
    lto-llvm-434951.o(.text.rt_object_detach) refers to context_rvds.o(.text) for rt_hw_interrupt_disable
    lto-llvm-434951.o(.text.rt_object_detach) refers to lto-llvm-434951.o(.text.rt_list_remove.264) for rt_list_remove.264
    lto-llvm-434951.o(.ARM.exidx.text.rt_object_detach) refers to lto-llvm-434951.o(.text.rt_object_detach) for [Anonymous Symbol]
    lto-llvm-434951.o(.ARM.exidx.text.rt_list_remove.264) refers to lto-llvm-434951.o(.text.rt_list_remove.264) for [Anonymous Symbol]
    lto-llvm-434951.o(.text.rt_object_allocate) refers to context_rvds.o(.text) for rt_hw_interrupt_disable
    lto-llvm-434951.o(.text.rt_object_allocate) refers to lto-llvm-434951.o(.text.rt_interrupt_get_nest) for rt_interrupt_get_nest
    lto-llvm-434951.o(.text.rt_object_allocate) refers to lto-llvm-434951.o(.rodata.str1.1) for .L.str.3.267
    lto-llvm-434951.o(.text.rt_object_allocate) refers to lto-llvm-434951.o(.text.rt_kprintf) for rt_kprintf
    lto-llvm-434951.o(.text.rt_object_allocate) refers to lto-llvm-434951.o(.text.rt_assert_handler) for rt_assert_handler
    lto-llvm-434951.o(.text.rt_object_allocate) refers to lto-llvm-434951.o(.text.rt_object_get_information) for rt_object_get_information
    lto-llvm-434951.o(.text.rt_object_allocate) refers to lto-llvm-434951.o(.text.rt_malloc) for rt_malloc
    lto-llvm-434951.o(.text.rt_object_allocate) refers to lto-llvm-434951.o(.text.rt_memset) for rt_memset
    lto-llvm-434951.o(.text.rt_object_allocate) refers to lto-llvm-434951.o(.text.rt_strncpy) for rt_strncpy
    lto-llvm-434951.o(.text.rt_object_allocate) refers to lto-llvm-434951.o(.text.rt_list_insert_after.260) for rt_list_insert_after.260
    lto-llvm-434951.o(.ARM.exidx.text.rt_object_allocate) refers to lto-llvm-434951.o(.text.rt_object_allocate) for [Anonymous Symbol]
    lto-llvm-434951.o(.text.rt_object_delete) refers to lto-llvm-434951.o(.rodata.str1.1) for .L.str.2.263
    lto-llvm-434951.o(.text.rt_object_delete) refers to lto-llvm-434951.o(.text.rt_assert_handler) for rt_assert_handler
    lto-llvm-434951.o(.text.rt_object_delete) refers to context_rvds.o(.text) for rt_hw_interrupt_disable
    lto-llvm-434951.o(.text.rt_object_delete) refers to lto-llvm-434951.o(.text.rt_list_remove.264) for rt_list_remove.264
    lto-llvm-434951.o(.text.rt_object_delete) refers to lto-llvm-434951.o(.text.rt_free) for rt_free
    lto-llvm-434951.o(.ARM.exidx.text.rt_object_delete) refers to lto-llvm-434951.o(.text.rt_object_delete) for [Anonymous Symbol]
    lto-llvm-434951.o(.text.rt_object_is_systemobject) refers to lto-llvm-434951.o(.rodata.str1.1) for .L.str.2.263
    lto-llvm-434951.o(.text.rt_object_is_systemobject) refers to lto-llvm-434951.o(.text.rt_assert_handler) for rt_assert_handler
    lto-llvm-434951.o(.ARM.exidx.text.rt_object_is_systemobject) refers to lto-llvm-434951.o(.text.rt_object_is_systemobject) for [Anonymous Symbol]
    lto-llvm-434951.o(.text.rt_object_get_type) refers to lto-llvm-434951.o(.rodata.str1.1) for .L.str.2.263
    lto-llvm-434951.o(.text.rt_object_get_type) refers to lto-llvm-434951.o(.text.rt_assert_handler) for rt_assert_handler
    lto-llvm-434951.o(.ARM.exidx.text.rt_object_get_type) refers to lto-llvm-434951.o(.text.rt_object_get_type) for [Anonymous Symbol]
    lto-llvm-434951.o(.text.rt_system_scheduler_init) refers to lto-llvm-434951.o(.bss) for rt_scheduler_lock_nest
    lto-llvm-434951.o(.text.rt_system_scheduler_init) refers to lto-llvm-434951.o(.text.rt_list_init.280) for rt_list_init.280
    lto-llvm-434951.o(.ARM.exidx.text.rt_system_scheduler_init) refers to lto-llvm-434951.o(.text.rt_system_scheduler_init) for [Anonymous Symbol]
    lto-llvm-434951.o(.ARM.exidx.text.rt_list_init.280) refers to lto-llvm-434951.o(.text.rt_list_init.280) for [Anonymous Symbol]
    lto-llvm-434951.o(.text.rt_system_scheduler_start) refers to lto-llvm-434951.o(.bss) for rt_thread_ready_priority_group
    lto-llvm-434951.o(.text.rt_system_scheduler_start) refers to lto-llvm-434951.o(.text.__rt_ffs) for __rt_ffs
    lto-llvm-434951.o(.text.rt_system_scheduler_start) refers to context_rvds.o(.text) for rt_hw_context_switch_to
    lto-llvm-434951.o(.ARM.exidx.text.rt_system_scheduler_start) refers to lto-llvm-434951.o(.text.rt_system_scheduler_start) for [Anonymous Symbol]
    lto-llvm-434951.o(.text.rt_schedule) refers to context_rvds.o(.text) for rt_hw_interrupt_disable
    lto-llvm-434951.o(.text.rt_schedule) refers to lto-llvm-434951.o(.bss) for rt_scheduler_lock_nest
    lto-llvm-434951.o(.text.rt_schedule) refers to lto-llvm-434951.o(.text.__rt_ffs) for __rt_ffs
    lto-llvm-434951.o(.text.rt_schedule) refers to lto-llvm-434951.o(.text._rt_scheduler_stack_check) for _rt_scheduler_stack_check
    lto-llvm-434951.o(.ARM.exidx.text.rt_schedule) refers to lto-llvm-434951.o(.text.rt_schedule) for [Anonymous Symbol]
    lto-llvm-434951.o(.text._rt_scheduler_stack_check) refers to lto-llvm-434951.o(.rodata.str1.1) for .L.str.298
    lto-llvm-434951.o(.text._rt_scheduler_stack_check) refers to lto-llvm-434951.o(.text.rt_assert_handler) for rt_assert_handler
    lto-llvm-434951.o(.text._rt_scheduler_stack_check) refers to lto-llvm-434951.o(.text.rt_kprintf) for rt_kprintf
    lto-llvm-434951.o(.text._rt_scheduler_stack_check) refers to lto-llvm-434951.o(.text.list_thread) for list_thread
    lto-llvm-434951.o(.text._rt_scheduler_stack_check) refers to context_rvds.o(.text) for rt_hw_interrupt_disable
    lto-llvm-434951.o(.ARM.exidx.text._rt_scheduler_stack_check) refers to lto-llvm-434951.o(.text._rt_scheduler_stack_check) for [Anonymous Symbol]
    lto-llvm-434951.o(.text.rt_schedule_insert_thread) refers to lto-llvm-434951.o(.rodata.str1.1) for .L.str.298
    lto-llvm-434951.o(.text.rt_schedule_insert_thread) refers to lto-llvm-434951.o(.text.rt_assert_handler) for rt_assert_handler
    lto-llvm-434951.o(.text.rt_schedule_insert_thread) refers to context_rvds.o(.text) for rt_hw_interrupt_disable
    lto-llvm-434951.o(.text.rt_schedule_insert_thread) refers to lto-llvm-434951.o(.bss) for rt_thread_priority_table
    lto-llvm-434951.o(.text.rt_schedule_insert_thread) refers to lto-llvm-434951.o(.text.rt_list_insert_before.288) for rt_list_insert_before.288
    lto-llvm-434951.o(.ARM.exidx.text.rt_schedule_insert_thread) refers to lto-llvm-434951.o(.text.rt_schedule_insert_thread) for [Anonymous Symbol]
    lto-llvm-434951.o(.ARM.exidx.text.rt_list_insert_before.288) refers to lto-llvm-434951.o(.text.rt_list_insert_before.288) for [Anonymous Symbol]
    lto-llvm-434951.o(.text.rt_schedule_remove_thread) refers to lto-llvm-434951.o(.rodata.str1.1) for .L.str.298
    lto-llvm-434951.o(.text.rt_schedule_remove_thread) refers to lto-llvm-434951.o(.text.rt_assert_handler) for rt_assert_handler
    lto-llvm-434951.o(.text.rt_schedule_remove_thread) refers to context_rvds.o(.text) for rt_hw_interrupt_disable
    lto-llvm-434951.o(.text.rt_schedule_remove_thread) refers to lto-llvm-434951.o(.text.rt_list_remove.289) for rt_list_remove.289
    lto-llvm-434951.o(.text.rt_schedule_remove_thread) refers to lto-llvm-434951.o(.bss) for rt_thread_priority_table
    lto-llvm-434951.o(.text.rt_schedule_remove_thread) refers to lto-llvm-434951.o(.text.rt_list_isempty.290) for rt_list_isempty.290
    lto-llvm-434951.o(.ARM.exidx.text.rt_schedule_remove_thread) refers to lto-llvm-434951.o(.text.rt_schedule_remove_thread) for [Anonymous Symbol]
    lto-llvm-434951.o(.ARM.exidx.text.rt_list_remove.289) refers to lto-llvm-434951.o(.text.rt_list_remove.289) for [Anonymous Symbol]
    lto-llvm-434951.o(.ARM.exidx.text.rt_list_isempty.290) refers to lto-llvm-434951.o(.text.rt_list_isempty.290) for [Anonymous Symbol]
    lto-llvm-434951.o(.text.rt_enter_critical) refers to context_rvds.o(.text) for rt_hw_interrupt_disable
    lto-llvm-434951.o(.text.rt_enter_critical) refers to lto-llvm-434951.o(.bss) for rt_scheduler_lock_nest
    lto-llvm-434951.o(.ARM.exidx.text.rt_enter_critical) refers to lto-llvm-434951.o(.text.rt_enter_critical) for [Anonymous Symbol]
    lto-llvm-434951.o(.text.rt_exit_critical) refers to context_rvds.o(.text) for rt_hw_interrupt_disable
    lto-llvm-434951.o(.text.rt_exit_critical) refers to lto-llvm-434951.o(.bss) for rt_scheduler_lock_nest
    lto-llvm-434951.o(.text.rt_exit_critical) refers to lto-llvm-434951.o(.text.rt_schedule) for rt_schedule
    lto-llvm-434951.o(.ARM.exidx.text.rt_exit_critical) refers to lto-llvm-434951.o(.text.rt_exit_critical) for [Anonymous Symbol]
    lto-llvm-434951.o(.text.rt_thread_exit) refers to lto-llvm-434951.o(.bss) for rt_current_thread
    lto-llvm-434951.o(.text.rt_thread_exit) refers to context_rvds.o(.text) for rt_hw_interrupt_disable
    lto-llvm-434951.o(.text.rt_thread_exit) refers to lto-llvm-434951.o(.text._thread_cleanup_execute) for _thread_cleanup_execute
    lto-llvm-434951.o(.text.rt_thread_exit) refers to lto-llvm-434951.o(.text.rt_schedule_remove_thread) for rt_schedule_remove_thread
    lto-llvm-434951.o(.text.rt_thread_exit) refers to lto-llvm-434951.o(.text.rt_timer_detach) for rt_timer_detach
    lto-llvm-434951.o(.text.rt_thread_exit) refers to lto-llvm-434951.o(.text.rt_object_is_systemobject) for rt_object_is_systemobject
    lto-llvm-434951.o(.text.rt_thread_exit) refers to lto-llvm-434951.o(.text.rt_object_detach) for rt_object_detach
    lto-llvm-434951.o(.text.rt_thread_exit) refers to lto-llvm-434951.o(.text.rt_list_insert_after.295) for rt_list_insert_after.295
    lto-llvm-434951.o(.text.rt_thread_exit) refers to lto-llvm-434951.o(.text.rt_schedule) for rt_schedule
    lto-llvm-434951.o(.ARM.exidx.text.rt_thread_exit) refers to lto-llvm-434951.o(.text.rt_thread_exit) for [Anonymous Symbol]
    lto-llvm-434951.o(.text._thread_cleanup_execute) refers to context_rvds.o(.text) for rt_hw_interrupt_disable
    lto-llvm-434951.o(.ARM.exidx.text._thread_cleanup_execute) refers to lto-llvm-434951.o(.text._thread_cleanup_execute) for [Anonymous Symbol]
    lto-llvm-434951.o(.text.rt_list_insert_after.295) refers to lto-llvm-434951.o(.bss) for rt_thread_defunct
    lto-llvm-434951.o(.ARM.exidx.text.rt_list_insert_after.295) refers to lto-llvm-434951.o(.text.rt_list_insert_after.295) for [Anonymous Symbol]
    lto-llvm-434951.o(.text.rt_thread_init) refers to lto-llvm-434951.o(.rodata.str1.1) for .L.str.298
    lto-llvm-434951.o(.text.rt_thread_init) refers to lto-llvm-434951.o(.text.rt_assert_handler) for rt_assert_handler
    lto-llvm-434951.o(.text.rt_thread_init) refers to lto-llvm-434951.o(.text.rt_object_init) for rt_object_init
    lto-llvm-434951.o(.text.rt_thread_init) refers to lto-llvm-434951.o(.text._rt_thread_init) for _rt_thread_init
    lto-llvm-434951.o(.ARM.exidx.text.rt_thread_init) refers to lto-llvm-434951.o(.text.rt_thread_init) for [Anonymous Symbol]
    lto-llvm-434951.o(.text._rt_thread_init) refers to lto-llvm-434951.o(.text.rt_list_init.300) for rt_list_init.300
    lto-llvm-434951.o(.text._rt_thread_init) refers to lto-llvm-434951.o(.text.rt_memset) for rt_memset
    lto-llvm-434951.o(.text._rt_thread_init) refers to lto-llvm-434951.o(.text.rt_hw_stack_init) for rt_hw_stack_init
    lto-llvm-434951.o(.text._rt_thread_init) refers to lto-llvm-434951.o(.rodata.str1.1) for .L.str.8.301
    lto-llvm-434951.o(.text._rt_thread_init) refers to lto-llvm-434951.o(.text.rt_assert_handler) for rt_assert_handler
    lto-llvm-434951.o(.text._rt_thread_init) refers to lto-llvm-434951.o(.text.rt_timer_init) for rt_timer_init
    lto-llvm-434951.o(.ARM.exidx.text._rt_thread_init) refers to lto-llvm-434951.o(.text._rt_thread_init) for [Anonymous Symbol]
    lto-llvm-434951.o(.ARM.exidx.text.rt_list_init.300) refers to lto-llvm-434951.o(.text.rt_list_init.300) for [Anonymous Symbol]
    lto-llvm-434951.o(.text.rt_thread_timeout) refers to lto-llvm-434951.o(.rodata.str1.1) for .L.str.298
    lto-llvm-434951.o(.text.rt_thread_timeout) refers to lto-llvm-434951.o(.text.rt_assert_handler) for rt_assert_handler
    lto-llvm-434951.o(.text.rt_thread_timeout) refers to lto-llvm-434951.o(.text.rt_object_get_type) for rt_object_get_type
    lto-llvm-434951.o(.text.rt_thread_timeout) refers to lto-llvm-434951.o(.text.rt_list_remove.304) for rt_list_remove.304
    lto-llvm-434951.o(.text.rt_thread_timeout) refers to lto-llvm-434951.o(.text.rt_schedule_insert_thread) for rt_schedule_insert_thread
    lto-llvm-434951.o(.text.rt_thread_timeout) refers to lto-llvm-434951.o(.text.rt_schedule) for rt_schedule
    lto-llvm-434951.o(.ARM.exidx.text.rt_thread_timeout) refers to lto-llvm-434951.o(.text.rt_thread_timeout) for [Anonymous Symbol]
    lto-llvm-434951.o(.ARM.exidx.text.rt_list_remove.304) refers to lto-llvm-434951.o(.text.rt_list_remove.304) for [Anonymous Symbol]
    lto-llvm-434951.o(.text.rt_thread_self) refers to lto-llvm-434951.o(.bss) for rt_current_thread
    lto-llvm-434951.o(.ARM.exidx.text.rt_thread_self) refers to lto-llvm-434951.o(.text.rt_thread_self) for [Anonymous Symbol]
    lto-llvm-434951.o(.text.rt_thread_startup) refers to lto-llvm-434951.o(.rodata.str1.1) for .L.str.298
    lto-llvm-434951.o(.text.rt_thread_startup) refers to lto-llvm-434951.o(.text.rt_assert_handler) for rt_assert_handler
    lto-llvm-434951.o(.text.rt_thread_startup) refers to lto-llvm-434951.o(.text.rt_object_get_type) for rt_object_get_type
    lto-llvm-434951.o(.text.rt_thread_startup) refers to lto-llvm-434951.o(.text.rt_thread_resume) for rt_thread_resume
    lto-llvm-434951.o(.text.rt_thread_startup) refers to lto-llvm-434951.o(.text.rt_thread_self) for rt_thread_self
    lto-llvm-434951.o(.text.rt_thread_startup) refers to lto-llvm-434951.o(.text.rt_schedule) for rt_schedule
    lto-llvm-434951.o(.ARM.exidx.text.rt_thread_startup) refers to lto-llvm-434951.o(.text.rt_thread_startup) for [Anonymous Symbol]
    lto-llvm-434951.o(.text.rt_thread_resume) refers to lto-llvm-434951.o(.rodata.str1.1) for .L.str.298
    lto-llvm-434951.o(.text.rt_thread_resume) refers to lto-llvm-434951.o(.text.rt_assert_handler) for rt_assert_handler
    lto-llvm-434951.o(.text.rt_thread_resume) refers to lto-llvm-434951.o(.text.rt_object_get_type) for rt_object_get_type
    lto-llvm-434951.o(.text.rt_thread_resume) refers to context_rvds.o(.text) for rt_hw_interrupt_disable
    lto-llvm-434951.o(.text.rt_thread_resume) refers to lto-llvm-434951.o(.text.rt_list_remove.304) for rt_list_remove.304
    lto-llvm-434951.o(.text.rt_thread_resume) refers to lto-llvm-434951.o(.text.rt_timer_stop) for rt_timer_stop
    lto-llvm-434951.o(.text.rt_thread_resume) refers to lto-llvm-434951.o(.text.rt_schedule_insert_thread) for rt_schedule_insert_thread
    lto-llvm-434951.o(.ARM.exidx.text.rt_thread_resume) refers to lto-llvm-434951.o(.text.rt_thread_resume) for [Anonymous Symbol]
    lto-llvm-434951.o(.text.rt_thread_detach) refers to lto-llvm-434951.o(.rodata.str1.1) for .L.str.298
    lto-llvm-434951.o(.text.rt_thread_detach) refers to lto-llvm-434951.o(.text.rt_assert_handler) for rt_assert_handler
    lto-llvm-434951.o(.text.rt_thread_detach) refers to lto-llvm-434951.o(.text.rt_object_get_type) for rt_object_get_type
    lto-llvm-434951.o(.text.rt_thread_detach) refers to lto-llvm-434951.o(.text.rt_object_is_systemobject) for rt_object_is_systemobject
    lto-llvm-434951.o(.text.rt_thread_detach) refers to lto-llvm-434951.o(.text.rt_schedule_remove_thread) for rt_schedule_remove_thread
    lto-llvm-434951.o(.text.rt_thread_detach) refers to lto-llvm-434951.o(.text._thread_cleanup_execute) for _thread_cleanup_execute
    lto-llvm-434951.o(.text.rt_thread_detach) refers to lto-llvm-434951.o(.text.rt_timer_detach) for rt_timer_detach
    lto-llvm-434951.o(.text.rt_thread_detach) refers to lto-llvm-434951.o(.text.rt_object_detach) for rt_object_detach
    lto-llvm-434951.o(.text.rt_thread_detach) refers to context_rvds.o(.text) for rt_hw_interrupt_disable
    lto-llvm-434951.o(.text.rt_thread_detach) refers to lto-llvm-434951.o(.text.rt_list_insert_after.295) for rt_list_insert_after.295
    lto-llvm-434951.o(.ARM.exidx.text.rt_thread_detach) refers to lto-llvm-434951.o(.text.rt_thread_detach) for [Anonymous Symbol]
    lto-llvm-434951.o(.text.rt_thread_create) refers to lto-llvm-434951.o(.text.rt_object_allocate) for rt_object_allocate
    lto-llvm-434951.o(.text.rt_thread_create) refers to lto-llvm-434951.o(.text.rt_malloc) for rt_malloc
    lto-llvm-434951.o(.text.rt_thread_create) refers to lto-llvm-434951.o(.text.rt_object_delete) for rt_object_delete
    lto-llvm-434951.o(.text.rt_thread_create) refers to lto-llvm-434951.o(.text._rt_thread_init) for _rt_thread_init
    lto-llvm-434951.o(.ARM.exidx.text.rt_thread_create) refers to lto-llvm-434951.o(.text.rt_thread_create) for [Anonymous Symbol]
    lto-llvm-434951.o(.text.rt_thread_delete) refers to lto-llvm-434951.o(.rodata.str1.1) for .L.str.298
    lto-llvm-434951.o(.text.rt_thread_delete) refers to lto-llvm-434951.o(.text.rt_assert_handler) for rt_assert_handler
    lto-llvm-434951.o(.text.rt_thread_delete) refers to lto-llvm-434951.o(.text.rt_object_get_type) for rt_object_get_type
    lto-llvm-434951.o(.text.rt_thread_delete) refers to lto-llvm-434951.o(.text.rt_object_is_systemobject) for rt_object_is_systemobject
    lto-llvm-434951.o(.text.rt_thread_delete) refers to lto-llvm-434951.o(.text.rt_schedule_remove_thread) for rt_schedule_remove_thread
    lto-llvm-434951.o(.text.rt_thread_delete) refers to lto-llvm-434951.o(.text._thread_cleanup_execute) for _thread_cleanup_execute
    lto-llvm-434951.o(.text.rt_thread_delete) refers to lto-llvm-434951.o(.text.rt_timer_detach) for rt_timer_detach
    lto-llvm-434951.o(.text.rt_thread_delete) refers to context_rvds.o(.text) for rt_hw_interrupt_disable
    lto-llvm-434951.o(.text.rt_thread_delete) refers to lto-llvm-434951.o(.text.rt_list_insert_after.295) for rt_list_insert_after.295
    lto-llvm-434951.o(.ARM.exidx.text.rt_thread_delete) refers to lto-llvm-434951.o(.text.rt_thread_delete) for [Anonymous Symbol]
    lto-llvm-434951.o(.text.rt_thread_yield) refers to context_rvds.o(.text) for rt_hw_interrupt_disable
    lto-llvm-434951.o(.text.rt_thread_yield) refers to lto-llvm-434951.o(.bss) for rt_current_thread
    lto-llvm-434951.o(.text.rt_thread_yield) refers to lto-llvm-434951.o(.text.rt_list_remove.304) for rt_list_remove.304
    lto-llvm-434951.o(.text.rt_thread_yield) refers to lto-llvm-434951.o(.text.rt_list_insert_before.318) for rt_list_insert_before.318
    lto-llvm-434951.o(.text.rt_thread_yield) refers to lto-llvm-434951.o(.text.rt_schedule) for rt_schedule
    lto-llvm-434951.o(.ARM.exidx.text.rt_thread_yield) refers to lto-llvm-434951.o(.text.rt_thread_yield) for [Anonymous Symbol]
    lto-llvm-434951.o(.ARM.exidx.text.rt_list_insert_before.318) refers to lto-llvm-434951.o(.text.rt_list_insert_before.318) for [Anonymous Symbol]
    lto-llvm-434951.o(.text.rt_thread_sleep) refers to context_rvds.o(.text) for rt_hw_interrupt_disable
    lto-llvm-434951.o(.text.rt_thread_sleep) refers to lto-llvm-434951.o(.bss) for rt_current_thread
    lto-llvm-434951.o(.text.rt_thread_sleep) refers to lto-llvm-434951.o(.rodata.str1.1) for .L.str.298
    lto-llvm-434951.o(.text.rt_thread_sleep) refers to lto-llvm-434951.o(.text.rt_assert_handler) for rt_assert_handler
    lto-llvm-434951.o(.text.rt_thread_sleep) refers to lto-llvm-434951.o(.text.rt_object_get_type) for rt_object_get_type
    lto-llvm-434951.o(.text.rt_thread_sleep) refers to lto-llvm-434951.o(.text.rt_thread_suspend) for rt_thread_suspend
    lto-llvm-434951.o(.text.rt_thread_sleep) refers to lto-llvm-434951.o(.text.rt_timer_control) for rt_timer_control
    lto-llvm-434951.o(.text.rt_thread_sleep) refers to lto-llvm-434951.o(.text.rt_timer_start) for rt_timer_start
    lto-llvm-434951.o(.text.rt_thread_sleep) refers to lto-llvm-434951.o(.text.rt_schedule) for rt_schedule
    lto-llvm-434951.o(.ARM.exidx.text.rt_thread_sleep) refers to lto-llvm-434951.o(.text.rt_thread_sleep) for [Anonymous Symbol]
    lto-llvm-434951.o(.text.rt_thread_suspend) refers to lto-llvm-434951.o(.rodata.str1.1) for .L.str.298
    lto-llvm-434951.o(.text.rt_thread_suspend) refers to lto-llvm-434951.o(.text.rt_assert_handler) for rt_assert_handler
    lto-llvm-434951.o(.text.rt_thread_suspend) refers to lto-llvm-434951.o(.text.rt_object_get_type) for rt_object_get_type
    lto-llvm-434951.o(.text.rt_thread_suspend) refers to context_rvds.o(.text) for rt_hw_interrupt_disable
    lto-llvm-434951.o(.text.rt_thread_suspend) refers to lto-llvm-434951.o(.text.rt_schedule_remove_thread) for rt_schedule_remove_thread
    lto-llvm-434951.o(.text.rt_thread_suspend) refers to lto-llvm-434951.o(.text.rt_timer_stop) for rt_timer_stop
    lto-llvm-434951.o(.ARM.exidx.text.rt_thread_suspend) refers to lto-llvm-434951.o(.text.rt_thread_suspend) for [Anonymous Symbol]
    lto-llvm-434951.o(.text.rt_thread_delay) refers to lto-llvm-434951.o(.text.rt_thread_sleep) for rt_thread_sleep
    lto-llvm-434951.o(.ARM.exidx.text.rt_thread_delay) refers to lto-llvm-434951.o(.text.rt_thread_delay) for [Anonymous Symbol]
    lto-llvm-434951.o(.text.rt_thread_mdelay) refers to lto-llvm-434951.o(.text.rt_tick_from_millisecond) for rt_tick_from_millisecond
    lto-llvm-434951.o(.text.rt_thread_mdelay) refers to lto-llvm-434951.o(.text.rt_thread_sleep) for rt_thread_sleep
    lto-llvm-434951.o(.ARM.exidx.text.rt_thread_mdelay) refers to lto-llvm-434951.o(.text.rt_thread_mdelay) for [Anonymous Symbol]
    lto-llvm-434951.o(.text.rt_thread_control) refers to lto-llvm-434951.o(.rodata.str1.1) for .L.str.298
    lto-llvm-434951.o(.text.rt_thread_control) refers to lto-llvm-434951.o(.text.rt_assert_handler) for rt_assert_handler
    lto-llvm-434951.o(.text.rt_thread_control) refers to lto-llvm-434951.o(.text.rt_object_get_type) for rt_object_get_type
    lto-llvm-434951.o(.text.rt_thread_control) refers to context_rvds.o(.text) for rt_hw_interrupt_disable
    lto-llvm-434951.o(.text.rt_thread_control) refers to lto-llvm-434951.o(.text.rt_schedule_remove_thread) for rt_schedule_remove_thread
    lto-llvm-434951.o(.text.rt_thread_control) refers to lto-llvm-434951.o(.text.rt_schedule_insert_thread) for rt_schedule_insert_thread
    lto-llvm-434951.o(.text.rt_thread_control) refers to lto-llvm-434951.o(.text.rt_thread_startup) for rt_thread_startup
    lto-llvm-434951.o(.text.rt_thread_control) refers to lto-llvm-434951.o(.text.rt_object_is_systemobject) for rt_object_is_systemobject
    lto-llvm-434951.o(.text.rt_thread_control) refers to lto-llvm-434951.o(.text.rt_thread_detach) for rt_thread_detach
    lto-llvm-434951.o(.text.rt_thread_control) refers to lto-llvm-434951.o(.text.rt_thread_delete) for rt_thread_delete
    lto-llvm-434951.o(.ARM.exidx.text.rt_thread_control) refers to lto-llvm-434951.o(.text.rt_thread_control) for [Anonymous Symbol]
    lto-llvm-434951.o(.text.rt_timer_init) refers to lto-llvm-434951.o(.text.rt_thread_timeout) for rt_thread_timeout
    lto-llvm-434951.o(.text.rt_timer_init) refers to lto-llvm-434951.o(.rodata.str1.1) for .L.str.326
    lto-llvm-434951.o(.text.rt_timer_init) refers to lto-llvm-434951.o(.text.rt_assert_handler) for rt_assert_handler
    lto-llvm-434951.o(.text.rt_timer_init) refers to lto-llvm-434951.o(.text.rt_object_init) for rt_object_init
    lto-llvm-434951.o(.text.rt_timer_init) refers to lto-llvm-434951.o(.text._rt_timer_init) for _rt_timer_init
    lto-llvm-434951.o(.ARM.exidx.text.rt_timer_init) refers to lto-llvm-434951.o(.text.rt_timer_init) for [Anonymous Symbol]
    lto-llvm-434951.o(.text._rt_timer_init) refers to lto-llvm-434951.o(.text.rt_list_init.327) for rt_list_init.327
    lto-llvm-434951.o(.ARM.exidx.text._rt_timer_init) refers to lto-llvm-434951.o(.text._rt_timer_init) for [Anonymous Symbol]
    lto-llvm-434951.o(.ARM.exidx.text.rt_list_init.327) refers to lto-llvm-434951.o(.text.rt_list_init.327) for [Anonymous Symbol]
    lto-llvm-434951.o(.text.rt_timer_detach) refers to lto-llvm-434951.o(.rodata.str1.1) for .L.str.326
    lto-llvm-434951.o(.text.rt_timer_detach) refers to lto-llvm-434951.o(.text.rt_assert_handler) for rt_assert_handler
    lto-llvm-434951.o(.text.rt_timer_detach) refers to lto-llvm-434951.o(.text.rt_object_get_type) for rt_object_get_type
    lto-llvm-434951.o(.text.rt_timer_detach) refers to lto-llvm-434951.o(.text.rt_object_is_systemobject) for rt_object_is_systemobject
    lto-llvm-434951.o(.text.rt_timer_detach) refers to context_rvds.o(.text) for rt_hw_interrupt_disable
    lto-llvm-434951.o(.text.rt_timer_detach) refers to lto-llvm-434951.o(.text._rt_timer_remove) for _rt_timer_remove
    lto-llvm-434951.o(.text.rt_timer_detach) refers to lto-llvm-434951.o(.text.rt_object_detach) for rt_object_detach
    lto-llvm-434951.o(.ARM.exidx.text.rt_timer_detach) refers to lto-llvm-434951.o(.text.rt_timer_detach) for [Anonymous Symbol]
    lto-llvm-434951.o(.text._rt_timer_remove) refers to lto-llvm-434951.o(.text.rt_list_remove.332) for rt_list_remove.332
    lto-llvm-434951.o(.ARM.exidx.text._rt_timer_remove) refers to lto-llvm-434951.o(.text._rt_timer_remove) for [Anonymous Symbol]
    lto-llvm-434951.o(.ARM.exidx.text.rt_list_remove.332) refers to lto-llvm-434951.o(.text.rt_list_remove.332) for [Anonymous Symbol]
    lto-llvm-434951.o(.text.rt_timer_create) refers to lto-llvm-434951.o(.rodata.str1.1) for .L.str.352
    lto-llvm-434951.o(.text.rt_timer_create) refers to lto-llvm-434951.o(.text.timeout_entry) for timeout_entry
    lto-llvm-434951.o(.text.rt_timer_create) refers to lto-llvm-434951.o(.text.rt_object_allocate) for rt_object_allocate
    lto-llvm-434951.o(.text.rt_timer_create) refers to lto-llvm-434951.o(.text._rt_timer_init) for _rt_timer_init
    lto-llvm-434951.o(.ARM.exidx.text.rt_timer_create) refers to lto-llvm-434951.o(.text.rt_timer_create) for [Anonymous Symbol]
    lto-llvm-434951.o(.text.rt_timer_start) refers to lto-llvm-434951.o(.rodata.str1.1) for .L.str.326
    lto-llvm-434951.o(.text.rt_timer_start) refers to lto-llvm-434951.o(.text.rt_assert_handler) for rt_assert_handler
    lto-llvm-434951.o(.text.rt_timer_start) refers to lto-llvm-434951.o(.text.rt_object_get_type) for rt_object_get_type
    lto-llvm-434951.o(.text.rt_timer_start) refers to context_rvds.o(.text) for rt_hw_interrupt_disable
    lto-llvm-434951.o(.text.rt_timer_start) refers to lto-llvm-434951.o(.text._rt_timer_remove) for _rt_timer_remove
    lto-llvm-434951.o(.text.rt_timer_start) refers to lto-llvm-434951.o(.text.rt_tick_get) for rt_tick_get
    lto-llvm-434951.o(.text.rt_timer_start) refers to lto-llvm-434951.o(.bss) for rt_soft_timer_list
    lto-llvm-434951.o(.text.rt_timer_start) refers to lto-llvm-434951.o(.text.rt_list_insert_after.337) for rt_list_insert_after.337
    lto-llvm-434951.o(.text.rt_timer_start) refers to lto-llvm-434951.o(.text.rt_thread_resume) for rt_thread_resume
    lto-llvm-434951.o(.text.rt_timer_start) refers to lto-llvm-434951.o(.text.rt_schedule) for rt_schedule
    lto-llvm-434951.o(.ARM.exidx.text.rt_timer_start) refers to lto-llvm-434951.o(.text.rt_timer_start) for [Anonymous Symbol]
    lto-llvm-434951.o(.ARM.exidx.text.rt_list_insert_after.337) refers to lto-llvm-434951.o(.text.rt_list_insert_after.337) for [Anonymous Symbol]
    lto-llvm-434951.o(.text.rt_timer_stop) refers to lto-llvm-434951.o(.rodata.str1.1) for .L.str.326
    lto-llvm-434951.o(.text.rt_timer_stop) refers to lto-llvm-434951.o(.text.rt_assert_handler) for rt_assert_handler
    lto-llvm-434951.o(.text.rt_timer_stop) refers to lto-llvm-434951.o(.text.rt_object_get_type) for rt_object_get_type
    lto-llvm-434951.o(.text.rt_timer_stop) refers to context_rvds.o(.text) for rt_hw_interrupt_disable
    lto-llvm-434951.o(.text.rt_timer_stop) refers to lto-llvm-434951.o(.text._rt_timer_remove) for _rt_timer_remove
    lto-llvm-434951.o(.ARM.exidx.text.rt_timer_stop) refers to lto-llvm-434951.o(.text.rt_timer_stop) for [Anonymous Symbol]
    lto-llvm-434951.o(.text.rt_timer_control) refers to lto-llvm-434951.o(.rodata.str1.1) for .L.str.326
    lto-llvm-434951.o(.text.rt_timer_control) refers to lto-llvm-434951.o(.text.rt_assert_handler) for rt_assert_handler
    lto-llvm-434951.o(.text.rt_timer_control) refers to lto-llvm-434951.o(.text.rt_object_get_type) for rt_object_get_type
    lto-llvm-434951.o(.text.rt_timer_control) refers to context_rvds.o(.text) for rt_hw_interrupt_disable
    lto-llvm-434951.o(.ARM.exidx.text.rt_timer_control) refers to lto-llvm-434951.o(.text.rt_timer_control) for [Anonymous Symbol]
    lto-llvm-434951.o(.text.rt_timer_check) refers to lto-llvm-434951.o(.text.rt_list_init.327) for rt_list_init.327
    lto-llvm-434951.o(.text.rt_timer_check) refers to lto-llvm-434951.o(.text.rt_tick_get) for rt_tick_get
    lto-llvm-434951.o(.text.rt_timer_check) refers to context_rvds.o(.text) for rt_hw_interrupt_disable
    lto-llvm-434951.o(.text.rt_timer_check) refers to lto-llvm-434951.o(.bss) for rt_timer_list
    lto-llvm-434951.o(.text.rt_timer_check) refers to lto-llvm-434951.o(.text.rt_list_isempty.344) for rt_list_isempty.344
    lto-llvm-434951.o(.text.rt_timer_check) refers to lto-llvm-434951.o(.text._rt_timer_remove) for _rt_timer_remove
    lto-llvm-434951.o(.text.rt_timer_check) refers to lto-llvm-434951.o(.text.rt_list_insert_after.337) for rt_list_insert_after.337
    lto-llvm-434951.o(.text.rt_timer_check) refers to lto-llvm-434951.o(.text.rt_list_remove.332) for rt_list_remove.332
    lto-llvm-434951.o(.text.rt_timer_check) refers to lto-llvm-434951.o(.text.rt_timer_start) for rt_timer_start
    lto-llvm-434951.o(.ARM.exidx.text.rt_timer_check) refers to lto-llvm-434951.o(.text.rt_timer_check) for [Anonymous Symbol]
    lto-llvm-434951.o(.ARM.exidx.text.rt_list_isempty.344) refers to lto-llvm-434951.o(.text.rt_list_isempty.344) for [Anonymous Symbol]
    lto-llvm-434951.o(.text.rt_timer_list_next_timeout) refers to lto-llvm-434951.o(.bss) for rt_soft_timer_list
    lto-llvm-434951.o(.text.rt_timer_list_next_timeout) refers to context_rvds.o(.text) for rt_hw_interrupt_disable
    lto-llvm-434951.o(.text.rt_timer_list_next_timeout) refers to lto-llvm-434951.o(.text.rt_list_isempty.344) for rt_list_isempty.344
    lto-llvm-434951.o(.ARM.exidx.text.rt_timer_list_next_timeout) refers to lto-llvm-434951.o(.text.rt_timer_list_next_timeout) for [Anonymous Symbol]
    lto-llvm-434951.o(.text.rt_soft_timer_check) refers to lto-llvm-434951.o(.text.rt_list_init.327) for rt_list_init.327
    lto-llvm-434951.o(.text.rt_soft_timer_check) refers to context_rvds.o(.text) for rt_hw_interrupt_disable
    lto-llvm-434951.o(.text.rt_soft_timer_check) refers to lto-llvm-434951.o(.bss) for rt_soft_timer_list
    lto-llvm-434951.o(.text.rt_soft_timer_check) refers to lto-llvm-434951.o(.text.rt_list_isempty.344) for rt_list_isempty.344
    lto-llvm-434951.o(.text.rt_soft_timer_check) refers to lto-llvm-434951.o(.text.rt_tick_get) for rt_tick_get
    lto-llvm-434951.o(.text.rt_soft_timer_check) refers to lto-llvm-434951.o(.text._rt_timer_remove) for _rt_timer_remove
    lto-llvm-434951.o(.text.rt_soft_timer_check) refers to lto-llvm-434951.o(.text.rt_list_insert_after.337) for rt_list_insert_after.337
    lto-llvm-434951.o(.text.rt_soft_timer_check) refers to lto-llvm-434951.o(.text.rt_list_remove.332) for rt_list_remove.332
    lto-llvm-434951.o(.text.rt_soft_timer_check) refers to lto-llvm-434951.o(.text.rt_timer_start) for rt_timer_start
    lto-llvm-434951.o(.ARM.exidx.text.rt_soft_timer_check) refers to lto-llvm-434951.o(.text.rt_soft_timer_check) for [Anonymous Symbol]
    lto-llvm-434951.o(.text.rt_system_timer_init) refers to lto-llvm-434951.o(.bss) for rt_timer_list
    lto-llvm-434951.o(.text.rt_system_timer_init) refers to lto-llvm-434951.o(.text.rt_list_init.327) for rt_list_init.327
    lto-llvm-434951.o(.ARM.exidx.text.rt_system_timer_init) refers to lto-llvm-434951.o(.text.rt_system_timer_init) for [Anonymous Symbol]
    lto-llvm-434951.o(.text.rt_system_timer_thread_init) refers to lto-llvm-434951.o(.bss) for rt_soft_timer_list
    lto-llvm-434951.o(.text.rt_system_timer_thread_init) refers to lto-llvm-434951.o(.text.rt_list_init.327) for rt_list_init.327
    lto-llvm-434951.o(.text.rt_system_timer_thread_init) refers to lto-llvm-434951.o(.rodata.str1.1) for .L.str.5.349
    lto-llvm-434951.o(.text.rt_system_timer_thread_init) refers to lto-llvm-434951.o(.text.rt_thread_timer_entry) for rt_thread_timer_entry
    lto-llvm-434951.o(.text.rt_system_timer_thread_init) refers to lto-llvm-434951.o(.text.rt_thread_init) for rt_thread_init
    lto-llvm-434951.o(.text.rt_system_timer_thread_init) refers to lto-llvm-434951.o(.text.rt_thread_startup) for rt_thread_startup
    lto-llvm-434951.o(.ARM.exidx.text.rt_system_timer_thread_init) refers to lto-llvm-434951.o(.text.rt_system_timer_thread_init) for [Anonymous Symbol]
    lto-llvm-434951.o(.text.rt_thread_timer_entry) refers to lto-llvm-434951.o(.text.rt_timer_list_next_timeout) for rt_timer_list_next_timeout
    lto-llvm-434951.o(.text.rt_thread_timer_entry) refers to lto-llvm-434951.o(.text.rt_thread_self) for rt_thread_self
    lto-llvm-434951.o(.text.rt_thread_timer_entry) refers to lto-llvm-434951.o(.text.rt_thread_suspend) for rt_thread_suspend
    lto-llvm-434951.o(.text.rt_thread_timer_entry) refers to lto-llvm-434951.o(.text.rt_schedule) for rt_schedule
    lto-llvm-434951.o(.text.rt_thread_timer_entry) refers to lto-llvm-434951.o(.text.rt_tick_get) for rt_tick_get
    lto-llvm-434951.o(.text.rt_thread_timer_entry) refers to lto-llvm-434951.o(.text.rt_thread_delay) for rt_thread_delay
    lto-llvm-434951.o(.text.rt_thread_timer_entry) refers to lto-llvm-434951.o(.text.rt_soft_timer_check) for rt_soft_timer_check
    lto-llvm-434951.o(.ARM.exidx.text.rt_thread_timer_entry) refers to lto-llvm-434951.o(.text.rt_thread_timer_entry) for [Anonymous Symbol]
    lto-llvm-434951.o(.text.app_main_control_init) refers to lto-llvm-434951.o(.text.rt_timer_create) for rt_timer_create
    lto-llvm-434951.o(.text.app_main_control_init) refers to lto-llvm-434951.o(.bss) for stop_timer
    lto-llvm-434951.o(.text.app_main_control_init) refers to lto-llvm-434951.o(.rodata.str1.1) for .L.str.1.353
    lto-llvm-434951.o(.text.app_main_control_init) refers to lto-llvm-434951.o(.text.app_main_control_main) for app_main_control_main
    lto-llvm-434951.o(.text.app_main_control_init) refers to lto-llvm-434951.o(.text.rt_thread_create) for rt_thread_create
    lto-llvm-434951.o(.text.app_main_control_init) refers to lto-llvm-434951.o(.text.sub_thread_control_init) for sub_thread_control_init
    lto-llvm-434951.o(.text.app_main_control_init) refers to lto-llvm-434951.o(.text.rt_thread_startup) for rt_thread_startup
    lto-llvm-434951.o(.ARM.exidx.text.app_main_control_init) refers to lto-llvm-434951.o(.text.app_main_control_init) for [Anonymous Symbol]
    lto-llvm-434951.o(.text.timeout_entry) refers to lto-llvm-434951.o(.bss) for timer_sta
    lto-llvm-434951.o(.text.timeout_entry) refers to lto-llvm-434951.o(.text.serv_led_sign_send_event) for serv_led_sign_send_event
    lto-llvm-434951.o(.text.timeout_entry) refers to lto-llvm-434951.o(.text.rt_thread_control) for rt_thread_control
    lto-llvm-434951.o(.ARM.exidx.text.timeout_entry) refers to lto-llvm-434951.o(.text.timeout_entry) for [Anonymous Symbol]
    lto-llvm-434951.o(.text.app_main_control_main) refers to lto-llvm-434951.o(.text.HAL_GPIO_WritePin) for HAL_GPIO_WritePin
    lto-llvm-434951.o(.text.app_main_control_main) refers to lto-llvm-434951.o(.bss) for key_event
    lto-llvm-434951.o(.text.app_main_control_main) refers to lto-llvm-434951.o(.text.rt_event_recv) for rt_event_recv
    lto-llvm-434951.o(.text.app_main_control_main) refers to lto-llvm-434951.o(.rodata.str1.1) for .L.str.2.358
    lto-llvm-434951.o(.text.app_main_control_main) refers to lto-llvm-434951.o(.text.rt_thread_startup) for rt_thread_startup
    lto-llvm-434951.o(.text.app_main_control_main) refers to lto-llvm-434951.o(.text.release_muscle) for release_muscle
    lto-llvm-434951.o(.text.app_main_control_main) refers to lto-llvm-434951.o(.text.rt_thread_mdelay) for rt_thread_mdelay
    lto-llvm-434951.o(.ARM.exidx.text.app_main_control_main) refers to lto-llvm-434951.o(.text.app_main_control_main) for [Anonymous Symbol]
    lto-llvm-434951.o(.text.sub_thread_control_init) refers to lto-llvm-434951.o(.rodata.str1.1) for .L.str.6.354
    lto-llvm-434951.o(.text.sub_thread_control_init) refers to lto-llvm-434951.o(.text.sub_thread_control_entry) for sub_thread_control_entry
    lto-llvm-434951.o(.text.sub_thread_control_init) refers to lto-llvm-434951.o(.text.rt_thread_create) for rt_thread_create
    lto-llvm-434951.o(.text.sub_thread_control_init) refers to lto-llvm-434951.o(.bss) for sub_thread_control
    lto-llvm-434951.o(.ARM.exidx.text.sub_thread_control_init) refers to lto-llvm-434951.o(.text.sub_thread_control_init) for [Anonymous Symbol]
    lto-llvm-434951.o(.text.sub_thread_control_entry) refers to lto-llvm-434951.o(.text.serv_led_sign_send_event) for serv_led_sign_send_event
    lto-llvm-434951.o(.text.sub_thread_control_entry) refers to lto-llvm-434951.o(.bss) for serv_ad_mailbox
    lto-llvm-434951.o(.text.sub_thread_control_entry) refers to lto-llvm-434951.o(.text.rt_mb_recv) for rt_mb_recv
    lto-llvm-434951.o(.text.sub_thread_control_entry) refers to dfixi.o(.text) for __aeabi_d2iz
    lto-llvm-434951.o(.text.sub_thread_control_entry) refers to lto-llvm-434951.o(.rodata) for control_target
    lto-llvm-434951.o(.text.sub_thread_control_entry) refers to dadd.o(.text) for __aeabi_dsub
    lto-llvm-434951.o(.text.sub_thread_control_entry) refers to lto-llvm-434951.o(.rodata.str1.1) for .L.str.7.355
    lto-llvm-434951.o(.text.sub_thread_control_entry) refers to lto-llvm-434951.o(.text.HAL_GPIO_WritePin) for HAL_GPIO_WritePin
    lto-llvm-434951.o(.text.sub_thread_control_entry) refers to lto-llvm-434951.o(.text.rt_thread_self) for rt_thread_self
    lto-llvm-434951.o(.text.sub_thread_control_entry) refers to lto-llvm-434951.o(.text.rt_thread_control) for rt_thread_control
    lto-llvm-434951.o(.text.sub_thread_control_entry) refers to dcmple.o(.text) for __aeabi_dcmple
    lto-llvm-434951.o(.text.sub_thread_control_entry) refers to lto-llvm-434951.o(.text.rt_timer_stop) for rt_timer_stop
    lto-llvm-434951.o(.text.sub_thread_control_entry) refers to dcmpge.o(.text) for __aeabi_dcmpge
    lto-llvm-434951.o(.text.sub_thread_control_entry) refers to lto-llvm-434951.o(.text.rt_timer_start) for rt_timer_start
    lto-llvm-434951.o(.text.sub_thread_control_entry) refers to lto-llvm-434951.o(.text.rt_thread_mdelay) for rt_thread_mdelay
    lto-llvm-434951.o(.ARM.exidx.text.sub_thread_control_entry) refers to lto-llvm-434951.o(.text.sub_thread_control_entry) for [Anonymous Symbol]
    lto-llvm-434951.o(.text.release_muscle) refers to lto-llvm-434951.o(.text.HAL_GPIO_WritePin) for HAL_GPIO_WritePin
    lto-llvm-434951.o(.ARM.exidx.text.release_muscle) refers to lto-llvm-434951.o(.text.release_muscle) for [Anonymous Symbol]
    lto-llvm-434951.o(.ARM.exidx.text.dev_ad7490_generate_control_seq) refers to lto-llvm-434951.o(.text.dev_ad7490_generate_control_seq) for [Anonymous Symbol]
    lto-llvm-434951.o(.text.dev_ad7490_fetch_data) refers to lto-llvm-434951.o(.data) for ad7490
    lto-llvm-434951.o(.text.dev_ad7490_fetch_data) refers to lto-llvm-434951.o(.text.dev_ad7490_fetch_data_in_independent_mode) for dev_ad7490_fetch_data_in_independent_mode
    lto-llvm-434951.o(.text.dev_ad7490_fetch_data) refers to lto-llvm-434951.o(.text.dev_ad7490_fetch_data_in_regular_scan_mode) for dev_ad7490_fetch_data_in_regular_scan_mode
    lto-llvm-434951.o(.text.dev_ad7490_fetch_data) refers to lto-llvm-434951.o(.text.dev_ad7490_fetch_data_in_continuous_mode) for dev_ad7490_fetch_data_in_continuous_mode
    lto-llvm-434951.o(.text.dev_ad7490_fetch_data) refers to lto-llvm-434951.o(.text.dev_ad7490_power_up) for dev_ad7490_power_up
    lto-llvm-434951.o(.text.dev_ad7490_fetch_data) refers to lto-llvm-434951.o(.text.dev_ad7490_generate_control_seq) for dev_ad7490_generate_control_seq
    lto-llvm-434951.o(.ARM.exidx.text.dev_ad7490_fetch_data) refers to lto-llvm-434951.o(.text.dev_ad7490_fetch_data) for [Anonymous Symbol]
    lto-llvm-434951.o(.text.dev_ad7490_fetch_data_in_independent_mode) refers to lto-llvm-434951.o(.text.HAL_GPIO_WritePin) for HAL_GPIO_WritePin
    lto-llvm-434951.o(.text.dev_ad7490_fetch_data_in_independent_mode) refers to lto-llvm-434951.o(.text.delay_us) for delay_us
    lto-llvm-434951.o(.text.dev_ad7490_fetch_data_in_independent_mode) refers to lto-llvm-434951.o(.text.HAL_SPI_Transmit) for HAL_SPI_Transmit
    lto-llvm-434951.o(.text.dev_ad7490_fetch_data_in_independent_mode) refers to lto-llvm-434951.o(.text.HAL_SPI_Receive) for HAL_SPI_Receive
    lto-llvm-434951.o(.text.dev_ad7490_fetch_data_in_independent_mode) refers to lto-llvm-434951.o(.text.dev_ad7490_decode_data) for dev_ad7490_decode_data
    lto-llvm-434951.o(.ARM.exidx.text.dev_ad7490_fetch_data_in_independent_mode) refers to lto-llvm-434951.o(.text.dev_ad7490_fetch_data_in_independent_mode) for [Anonymous Symbol]
    lto-llvm-434951.o(.text.dev_ad7490_fetch_data_in_regular_scan_mode) refers to lto-llvm-434951.o(.text.HAL_GPIO_WritePin) for HAL_GPIO_WritePin
    lto-llvm-434951.o(.text.dev_ad7490_fetch_data_in_regular_scan_mode) refers to lto-llvm-434951.o(.text.HAL_SPI_TransmitReceive) for HAL_SPI_TransmitReceive
    lto-llvm-434951.o(.text.dev_ad7490_fetch_data_in_regular_scan_mode) refers to lto-llvm-434951.o(.text.dev_ad7490_decode_data) for dev_ad7490_decode_data
    lto-llvm-434951.o(.text.dev_ad7490_fetch_data_in_regular_scan_mode) refers to lto-llvm-434951.o(.text.delay_us) for delay_us
    lto-llvm-434951.o(.ARM.exidx.text.dev_ad7490_fetch_data_in_regular_scan_mode) refers to lto-llvm-434951.o(.text.dev_ad7490_fetch_data_in_regular_scan_mode) for [Anonymous Symbol]
    lto-llvm-434951.o(.text.dev_ad7490_fetch_data_in_continuous_mode) refers to lto-llvm-434951.o(.text.HAL_GPIO_WritePin) for HAL_GPIO_WritePin
    lto-llvm-434951.o(.text.dev_ad7490_fetch_data_in_continuous_mode) refers to lto-llvm-434951.o(.text.delay_us) for delay_us
    lto-llvm-434951.o(.text.dev_ad7490_fetch_data_in_continuous_mode) refers to lto-llvm-434951.o(.text.HAL_SPI_TransmitReceive) for HAL_SPI_TransmitReceive
    lto-llvm-434951.o(.text.dev_ad7490_fetch_data_in_continuous_mode) refers to lto-llvm-434951.o(.text.dev_ad7490_decode_data) for dev_ad7490_decode_data
    lto-llvm-434951.o(.ARM.exidx.text.dev_ad7490_fetch_data_in_continuous_mode) refers to lto-llvm-434951.o(.text.dev_ad7490_fetch_data_in_continuous_mode) for [Anonymous Symbol]
    lto-llvm-434951.o(.text.dev_ad7490_power_up) refers to lto-llvm-434951.o(.text.HAL_GPIO_WritePin) for HAL_GPIO_WritePin
    lto-llvm-434951.o(.text.dev_ad7490_power_up) refers to lto-llvm-434951.o(.text.delay_us) for delay_us
    lto-llvm-434951.o(.text.dev_ad7490_power_up) refers to lto-llvm-434951.o(.text.HAL_SPI_Transmit) for HAL_SPI_Transmit
    lto-llvm-434951.o(.ARM.exidx.text.dev_ad7490_power_up) refers to lto-llvm-434951.o(.text.dev_ad7490_power_up) for [Anonymous Symbol]
    lto-llvm-434951.o(.ARM.exidx.text.dev_ad7490_decode_data) refers to lto-llvm-434951.o(.text.dev_ad7490_decode_data) for [Anonymous Symbol]
    lto-llvm-434951.o(.text.__perf_counter_init) refers to lto-llvm-434951.o(.text.init_cycle_counter) for init_cycle_counter
    lto-llvm-434951.o(.ARM.exidx.text.__perf_counter_init) refers to lto-llvm-434951.o(.text.__perf_counter_init) for [Anonymous Symbol]
    lto-llvm-434951.o(.text.init_cycle_counter) refers to lto-llvm-434951.o(.data) for SystemCoreClock
    lto-llvm-434951.o(.text.init_cycle_counter) refers to lto-llvm-434951.o(.text.start_cycle_counter) for start_cycle_counter
    lto-llvm-434951.o(.text.init_cycle_counter) refers to lto-llvm-434951.o(.text.stop_cycle_counter) for stop_cycle_counter
    lto-llvm-434951.o(.text.init_cycle_counter) refers to lto-llvm-434951.o(.bss) for s_nOffset
    lto-llvm-434951.o(.text.init_cycle_counter) refers to systick_wrapper_ual.o(.text) for __ensure_systick_wrapper
    lto-llvm-434951.o(.ARM.exidx.text.init_cycle_counter) refers to lto-llvm-434951.o(.text.init_cycle_counter) for [Anonymous Symbol]
    lto-llvm-434951.o(.text.start_cycle_counter) refers to lto-llvm-434951.o(.bss) for s_nCycleCounts.362
    lto-llvm-434951.o(.ARM.exidx.text.start_cycle_counter) refers to lto-llvm-434951.o(.text.start_cycle_counter) for [Anonymous Symbol]
    lto-llvm-434951.o(.text.stop_cycle_counter) refers to lto-llvm-434951.o(.bss) for s_nCycleCounts.362
    lto-llvm-434951.o(.ARM.exidx.text.stop_cycle_counter) refers to lto-llvm-434951.o(.text.stop_cycle_counter) for [Anonymous Symbol]
    lto-llvm-434951.o(.text.user_code_insert_to_systick_handler) refers to lto-llvm-434951.o(.bss) for s_nCycleCounts.362
    lto-llvm-434951.o(.ARM.exidx.text.user_code_insert_to_systick_handler) refers to lto-llvm-434951.o(.text.user_code_insert_to_systick_handler) for [Anonymous Symbol]
    lto-llvm-434951.o(.text.delay_us) refers to lto-llvm-434951.o(.data) for SystemCoreClock
    lto-llvm-434951.o(.text.delay_us) refers to lto-llvm-434951.o(.text.start_cycle_counter) for start_cycle_counter
    lto-llvm-434951.o(.text.delay_us) refers to lto-llvm-434951.o(.text.stop_cycle_counter) for stop_cycle_counter
    lto-llvm-434951.o(.ARM.exidx.text.delay_us) refers to lto-llvm-434951.o(.text.delay_us) for [Anonymous Symbol]
    lto-llvm-434951.o(.text.rt_ringbuffer_init) refers to lto-llvm-434951.o(.rodata.str1.1) for .L.str.365
    lto-llvm-434951.o(.text.rt_ringbuffer_init) refers to lto-llvm-434951.o(.text.rt_assert_handler) for rt_assert_handler
    lto-llvm-434951.o(.ARM.exidx.text.rt_ringbuffer_init) refers to lto-llvm-434951.o(.text.rt_ringbuffer_init) for [Anonymous Symbol]
    lto-llvm-434951.o(.text.rt_ringbuffer_put) refers to lto-llvm-434951.o(.bss) for usart1
    lto-llvm-434951.o(.text.rt_ringbuffer_put) refers to lto-llvm-434951.o(.rodata.str1.1) for .L.str.365
    lto-llvm-434951.o(.text.rt_ringbuffer_put) refers to lto-llvm-434951.o(.text.rt_assert_handler) for rt_assert_handler
    lto-llvm-434951.o(.text.rt_ringbuffer_put) refers to lto-llvm-434951.o(.text.rt_ringbuffer_data_len) for rt_ringbuffer_data_len
    lto-llvm-434951.o(.text.rt_ringbuffer_put) refers to memcpya.o(.text) for __aeabi_memcpy
    lto-llvm-434951.o(.ARM.exidx.text.rt_ringbuffer_put) refers to lto-llvm-434951.o(.text.rt_ringbuffer_put) for [Anonymous Symbol]
    lto-llvm-434951.o(.text.rt_ringbuffer_data_len) refers to lto-llvm-434951.o(.text.rt_ringbuffer_status) for rt_ringbuffer_status
    lto-llvm-434951.o(.ARM.exidx.text.rt_ringbuffer_data_len) refers to lto-llvm-434951.o(.text.rt_ringbuffer_data_len) for [Anonymous Symbol]
    lto-llvm-434951.o(.ARM.exidx.text.rt_ringbuffer_status) refers to lto-llvm-434951.o(.text.rt_ringbuffer_status) for [Anonymous Symbol]
    lto-llvm-434951.o(.text.rt_ringbuffer_getchar) refers to lto-llvm-434951.o(.bss) for usart1
    lto-llvm-434951.o(.text.rt_ringbuffer_getchar) refers to lto-llvm-434951.o(.rodata.str1.1) for .L.str.365
    lto-llvm-434951.o(.text.rt_ringbuffer_getchar) refers to lto-llvm-434951.o(.text.rt_assert_handler) for rt_assert_handler
    lto-llvm-434951.o(.text.rt_ringbuffer_getchar) refers to lto-llvm-434951.o(.text.rt_ringbuffer_data_len) for rt_ringbuffer_data_len
    lto-llvm-434951.o(.ARM.exidx.text.rt_ringbuffer_getchar) refers to lto-llvm-434951.o(.text.rt_ringbuffer_getchar) for [Anonymous Symbol]
    lto-llvm-434951.o(.text.serv_ad7490_fetcher_init) refers to lto-llvm-434951.o(.text.rt_sem_create) for rt_sem_create
    lto-llvm-434951.o(.text.serv_ad7490_fetcher_init) refers to lto-llvm-434951.o(.bss) for serv_ad7490_sem
    lto-llvm-434951.o(.text.serv_ad7490_fetcher_init) refers to lto-llvm-434951.o(.text.rt_mutex_create) for rt_mutex_create
    lto-llvm-434951.o(.text.serv_ad7490_fetcher_init) refers to lto-llvm-434951.o(.rodata.str1.1) for .L.str.2.371
    lto-llvm-434951.o(.text.serv_ad7490_fetcher_init) refers to lto-llvm-434951.o(.text.serv_ad7490_fetcher_main) for serv_ad7490_fetcher_main
    lto-llvm-434951.o(.text.serv_ad7490_fetcher_init) refers to lto-llvm-434951.o(.text.rt_thread_create) for rt_thread_create
    lto-llvm-434951.o(.text.serv_ad7490_fetcher_init) refers to lto-llvm-434951.o(.text.rt_mb_create) for rt_mb_create
    lto-llvm-434951.o(.text.serv_ad7490_fetcher_init) refers to lto-llvm-434951.o(.text.rt_thread_startup) for rt_thread_startup
    lto-llvm-434951.o(.text.serv_ad7490_fetcher_init) refers to lto-llvm-434951.o(.text.rt_kprintf) for rt_kprintf
    lto-llvm-434951.o(.ARM.exidx.text.serv_ad7490_fetcher_init) refers to lto-llvm-434951.o(.text.serv_ad7490_fetcher_init) for [Anonymous Symbol]
    lto-llvm-434951.o(.text.serv_ad7490_fetcher_main) refers to lto-llvm-434951.o(.bss) for ad7490_rb
    lto-llvm-434951.o(.text.serv_ad7490_fetcher_main) refers to lto-llvm-434951.o(.text.rt_ringbuffer_init) for rt_ringbuffer_init
    lto-llvm-434951.o(.text.serv_ad7490_fetcher_main) refers to lto-llvm-434951.o(.text.rt_mutex_take) for rt_mutex_take
    lto-llvm-434951.o(.text.serv_ad7490_fetcher_main) refers to lto-llvm-434951.o(.data) for ad7490
    lto-llvm-434951.o(.text.serv_ad7490_fetcher_main) refers to lto-llvm-434951.o(.text.dev_ad7490_fetch_data) for dev_ad7490_fetch_data
    lto-llvm-434951.o(.text.serv_ad7490_fetcher_main) refers to dflti.o(.text) for __aeabi_i2d
    lto-llvm-434951.o(.text.serv_ad7490_fetcher_main) refers to dmul.o(.text) for __aeabi_dmul
    lto-llvm-434951.o(.text.serv_ad7490_fetcher_main) refers to dadd.o(.text) for __aeabi_dadd
    lto-llvm-434951.o(.text.serv_ad7490_fetcher_main) refers to dfltui.o(.text) for __aeabi_ui2d
    lto-llvm-434951.o(.text.serv_ad7490_fetcher_main) refers to lto-llvm-434951.o(.text.rt_mb_send) for rt_mb_send
    lto-llvm-434951.o(.text.serv_ad7490_fetcher_main) refers to lto-llvm-434951.o(.text.rt_mutex_release) for rt_mutex_release
    lto-llvm-434951.o(.text.serv_ad7490_fetcher_main) refers to lto-llvm-434951.o(.rodata.str1.1) for .L.str.6.374
    lto-llvm-434951.o(.text.serv_ad7490_fetcher_main) refers to lto-llvm-434951.o(.text.rt_kprintf) for rt_kprintf
    lto-llvm-434951.o(.text.serv_ad7490_fetcher_main) refers to lto-llvm-434951.o(.text.rt_thread_mdelay) for rt_thread_mdelay
    lto-llvm-434951.o(.ARM.exidx.text.serv_ad7490_fetcher_main) refers to lto-llvm-434951.o(.text.serv_ad7490_fetcher_main) for [Anonymous Symbol]
    lto-llvm-434951.o(.text.serv_init) refers to lto-llvm-434951.o(.text.serv_ad7490_fetcher_init) for serv_ad7490_fetcher_init
    lto-llvm-434951.o(.text.serv_init) refers to lto-llvm-434951.o(.text.serv_key_listener_init) for serv_key_listener_init
    lto-llvm-434951.o(.text.serv_init) refers to lto-llvm-434951.o(.text.serv_led_sign_init) for serv_led_sign_init
    lto-llvm-434951.o(.ARM.exidx.text.serv_init) refers to lto-llvm-434951.o(.text.serv_init) for [Anonymous Symbol]
    lto-llvm-434951.o(.text.serv_key_listener_init) refers to lto-llvm-434951.o(.rodata.str1.1) for .L.str.382
    lto-llvm-434951.o(.text.serv_key_listener_init) refers to lto-llvm-434951.o(.text.rt_event_create) for rt_event_create
    lto-llvm-434951.o(.text.serv_key_listener_init) refers to lto-llvm-434951.o(.bss) for key_event
    lto-llvm-434951.o(.text.serv_key_listener_init) refers to lto-llvm-434951.o(.text.serv_key_listener_main) for serv_key_listener_main
    lto-llvm-434951.o(.text.serv_key_listener_init) refers to lto-llvm-434951.o(.text.rt_thread_create) for rt_thread_create
    lto-llvm-434951.o(.text.serv_key_listener_init) refers to lto-llvm-434951.o(.text.rt_thread_startup) for rt_thread_startup
    lto-llvm-434951.o(.ARM.exidx.text.serv_key_listener_init) refers to lto-llvm-434951.o(.text.serv_key_listener_init) for [Anonymous Symbol]
    lto-llvm-434951.o(.text.serv_key_listener_main) refers to lto-llvm-434951.o(.text.HAL_GPIO_ReadPin) for HAL_GPIO_ReadPin
    lto-llvm-434951.o(.text.serv_key_listener_main) refers to lto-llvm-434951.o(.bss) for key_tmp
    lto-llvm-434951.o(.text.serv_key_listener_main) refers to lto-llvm-434951.o(.data) for key_state
    lto-llvm-434951.o(.text.serv_key_listener_main) refers to lto-llvm-434951.o(.text.rt_event_send) for rt_event_send
    lto-llvm-434951.o(.text.serv_key_listener_main) refers to lto-llvm-434951.o(.text.rt_thread_mdelay) for rt_thread_mdelay
    lto-llvm-434951.o(.ARM.exidx.text.serv_key_listener_main) refers to lto-llvm-434951.o(.text.serv_key_listener_main) for [Anonymous Symbol]
    lto-llvm-434951.o(.text.serv_led_sign_init) refers to lto-llvm-434951.o(.rodata.str1.1) for .L.str.386
    lto-llvm-434951.o(.text.serv_led_sign_init) refers to lto-llvm-434951.o(.text.rt_event_create) for rt_event_create
    lto-llvm-434951.o(.text.serv_led_sign_init) refers to lto-llvm-434951.o(.bss) for serv_led_sign_event
    lto-llvm-434951.o(.text.serv_led_sign_init) refers to lto-llvm-434951.o(.text.rt_kprintf) for rt_kprintf
    lto-llvm-434951.o(.text.serv_led_sign_init) refers to lto-llvm-434951.o(.text.rt_thread_idle_sethook) for rt_thread_idle_sethook
    lto-llvm-434951.o(.ARM.exidx.text.serv_led_sign_init) refers to lto-llvm-434951.o(.text.serv_led_sign_init) for [Anonymous Symbol]
    lto-llvm-434951.o(.ARM.exidx.text.serv_led_sign_idle) refers to lto-llvm-434951.o(.text.serv_led_sign_idle) for [Anonymous Symbol]
    lto-llvm-434951.o(.text.serv_led_sign_send_event) refers to lto-llvm-434951.o(.bss) for serv_led_sign_event
    lto-llvm-434951.o(.text.serv_led_sign_send_event) refers to lto-llvm-434951.o(.text.rt_event_send) for rt_event_send
    lto-llvm-434951.o(.ARM.exidx.text.serv_led_sign_send_event) refers to lto-llvm-434951.o(.text.serv_led_sign_send_event) for [Anonymous Symbol]
    lto-llvm-434951.o(.text.serv_led_sign_hw_init) refers to lto-llvm-434951.o(.rodata) for .L__const.serv_led_sign_hw_init.CS_Initure
    lto-llvm-434951.o(.text.serv_led_sign_hw_init) refers to lto-llvm-434951.o(.text.HAL_GPIO_Init) for HAL_GPIO_Init
    lto-llvm-434951.o(.ARM.exidx.text.serv_led_sign_hw_init) refers to lto-llvm-434951.o(.text.serv_led_sign_hw_init) for [Anonymous Symbol]
    lto-llvm-434951.o(.text.USART1_IRQHandler) refers to lto-llvm-434951.o(.text.rt_interrupt_enter) for rt_interrupt_enter
    lto-llvm-434951.o(.text.USART1_IRQHandler) refers to lto-llvm-434951.o(.bss) for usart1
    lto-llvm-434951.o(.text.USART1_IRQHandler) refers to lto-llvm-434951.o(.text.HAL_UARTEx_ReceiveToIdle_DMA) for HAL_UARTEx_ReceiveToIdle_DMA
    lto-llvm-434951.o(.text.USART1_IRQHandler) refers to lto-llvm-434951.o(.text.HAL_UART_IRQHandler) for HAL_UART_IRQHandler
    lto-llvm-434951.o(.text.USART1_IRQHandler) refers to lto-llvm-434951.o(.text.rt_interrupt_leave) for rt_interrupt_leave
    lto-llvm-434951.o(.ARM.exidx.text.USART1_IRQHandler) refers to lto-llvm-434951.o(.text.USART1_IRQHandler) for [Anonymous Symbol]
    lto-llvm-434951.o(.text.HAL_UARTEx_RxEventCallback) refers to lto-llvm-434951.o(.bss) for usart1
    lto-llvm-434951.o(.text.HAL_UARTEx_RxEventCallback) refers to lto-llvm-434951.o(.text.rt_ringbuffer_put) for rt_ringbuffer_put
    lto-llvm-434951.o(.text.HAL_UARTEx_RxEventCallback) refers to lto-llvm-434951.o(.text.rt_sem_release) for rt_sem_release
    lto-llvm-434951.o(.ARM.exidx.text.HAL_UARTEx_RxEventCallback) refers to lto-llvm-434951.o(.text.HAL_UARTEx_RxEventCallback) for [Anonymous Symbol]
    lto-llvm-434951.o(.text.rt_hw_console_output) refers to lto-llvm-434951.o(.bss) for rt_kprintf.rt_log_buf
    lto-llvm-434951.o(.text.rt_hw_console_output) refers to lto-llvm-434951.o(.text.rt_sprintf) for rt_sprintf
    lto-llvm-434951.o(.text.rt_hw_console_output) refers to lto-llvm-434951.o(.text.HAL_UART_Transmit) for HAL_UART_Transmit
    lto-llvm-434951.o(.text.rt_hw_console_output) refers to lto-llvm-434951.o(.text.HAL_UART_Transmit_DMA) for HAL_UART_Transmit_DMA
    lto-llvm-434951.o(.ARM.exidx.text.rt_hw_console_output) refers to lto-llvm-434951.o(.text.rt_hw_console_output) for [Anonymous Symbol]
    lto-llvm-434951.o(.text.rt_hw_console_getchar) refers to lto-llvm-434951.o(.text.rt_ringbuffer_getchar) for rt_ringbuffer_getchar
    lto-llvm-434951.o(.text.rt_hw_console_getchar) refers to lto-llvm-434951.o(.bss) for usart1
    lto-llvm-434951.o(.text.rt_hw_console_getchar) refers to lto-llvm-434951.o(.text.rt_sem_take) for rt_sem_take
    lto-llvm-434951.o(.ARM.exidx.text.rt_hw_console_getchar) refers to lto-llvm-434951.o(.text.rt_hw_console_getchar) for [Anonymous Symbol]
    lto-llvm-434951.o(.text.dma_io_construct) refers to lto-llvm-434951.o(.text.dma_printf) for dma_printf
    lto-llvm-434951.o(.text.dma_io_construct) refers to lto-llvm-434951.o(.text.dma_output) for dma_output
    lto-llvm-434951.o(.text.dma_io_construct) refers to lto-llvm-434951.o(.text.dma_io_echo) for dma_io_echo
    lto-llvm-434951.o(.text.dma_io_construct) refers to lto-llvm-434951.o(.text.dma_io_get_reclength) for dma_io_get_reclength
    lto-llvm-434951.o(.text.dma_io_construct) refers to lto-llvm-434951.o(.text.dma_io_setRX_IT) for dma_io_setRX_IT
    lto-llvm-434951.o(.text.dma_io_construct) refers to lto-llvm-434951.o(.text.rt_ringbuffer_init) for rt_ringbuffer_init
    lto-llvm-434951.o(.text.dma_io_construct) refers to lto-llvm-434951.o(.rodata.str1.1) for .L.str.401
    lto-llvm-434951.o(.text.dma_io_construct) refers to lto-llvm-434951.o(.text.rt_sem_init) for rt_sem_init
    lto-llvm-434951.o(.ARM.exidx.text.dma_io_construct) refers to lto-llvm-434951.o(.text.dma_io_construct) for [Anonymous Symbol]
    lto-llvm-434951.o(.text.dma_printf) refers to lto-llvm-434951.o(.bss) for buffer
    lto-llvm-434951.o(.text.dma_printf) refers to lto-llvm-434951.o(.text.rt_vsprintf) for rt_vsprintf
    lto-llvm-434951.o(.ARM.exidx.text.dma_printf) refers to lto-llvm-434951.o(.text.dma_printf) for [Anonymous Symbol]
    lto-llvm-434951.o(.text.dma_output) refers to lto-llvm-434951.o(.text.HAL_UART_Transmit_DMA) for HAL_UART_Transmit_DMA
    lto-llvm-434951.o(.ARM.exidx.text.dma_output) refers to lto-llvm-434951.o(.text.dma_output) for [Anonymous Symbol]
    lto-llvm-434951.o(.ARM.exidx.text.dma_io_echo) refers to lto-llvm-434951.o(.text.dma_io_echo) for [Anonymous Symbol]
    lto-llvm-434951.o(.ARM.exidx.text.dma_io_get_reclength) refers to lto-llvm-434951.o(.text.dma_io_get_reclength) for [Anonymous Symbol]
    lto-llvm-434951.o(.ARM.exidx.text.dma_io_setRX_IT) refers to lto-llvm-434951.o(.text.dma_io_setRX_IT) for [Anonymous Symbol]
    lto-llvm-434951.o(.rti_fn.1) refers to lto-llvm-434951.o(.rodata) for [Anonymous Symbol]
    lto-llvm-434951.o(.rti_fn.1) refers to lto-llvm-434951.o(.text.hw_init) for hw_init
    lto-llvm-434951.o(.data) refers to lto-llvm-434951.o(.bss) for [Anonymous Symbol]
    lto-llvm-434951.o(FSymTab) refers to lto-llvm-434951.o(.rodata.name) for [Anonymous Symbol]
    lto-llvm-434951.o(FSymTab) refers to lto-llvm-434951.o(.text.hello) for hello
    lto-llvm-434951.o(FSymTab) refers to lto-llvm-434951.o(.text.version) for version
    lto-llvm-434951.o(FSymTab) refers to lto-llvm-434951.o(.text.list_thread) for list_thread
    lto-llvm-434951.o(FSymTab) refers to lto-llvm-434951.o(.text.list_sem) for list_sem
    lto-llvm-434951.o(FSymTab) refers to lto-llvm-434951.o(.text.list_event) for list_event
    lto-llvm-434951.o(FSymTab) refers to lto-llvm-434951.o(.text.list_mutex) for list_mutex
    lto-llvm-434951.o(FSymTab) refers to lto-llvm-434951.o(.text.list_mailbox) for list_mailbox
    lto-llvm-434951.o(FSymTab) refers to lto-llvm-434951.o(.text.list_mempool) for list_mempool
    lto-llvm-434951.o(FSymTab) refers to lto-llvm-434951.o(.text.list_timer) for list_timer
    lto-llvm-434951.o(FSymTab) refers to lto-llvm-434951.o(.text.list) for list
    lto-llvm-434951.o(FSymTab) refers to lto-llvm-434951.o(.text.msh_help) for msh_help
    lto-llvm-434951.o(FSymTab) refers to lto-llvm-434951.o(.text.cmd_ps) for cmd_ps
    lto-llvm-434951.o(FSymTab) refers to lto-llvm-434951.o(.text.cmd_free) for cmd_free
    lto-llvm-434951.o(FSymTab) refers to lto-llvm-434951.o(.text.list_mem) for list_mem
    lto-llvm-434951.o(.rti_fn.6) refers to lto-llvm-434951.o(.rodata) for [Anonymous Symbol]
    lto-llvm-434951.o(.rti_fn.6) refers to lto-llvm-434951.o(.text.finsh_system_init) for finsh_system_init
    lto-llvm-434951.o(.rti_fn.0) refers to lto-llvm-434951.o(.rodata) for [Anonymous Symbol]
    lto-llvm-434951.o(.rti_fn.0) refers to lto-llvm-434951.o(.text.rti_start) for rti_start
    lto-llvm-434951.o(.rti_fn.0.end) refers to lto-llvm-434951.o(.rodata) for [Anonymous Symbol]
    lto-llvm-434951.o(.rti_fn.0.end) refers to lto-llvm-434951.o(.text.rti_board_start) for rti_board_start
    lto-llvm-434951.o(.rti_fn.1.end) refers to lto-llvm-434951.o(.rodata) for [Anonymous Symbol]
    lto-llvm-434951.o(.rti_fn.1.end) refers to lto-llvm-434951.o(.text.rti_board_end) for rti_board_end
    lto-llvm-434951.o(.rti_fn.6.end) refers to lto-llvm-434951.o(.rodata) for [Anonymous Symbol]
    lto-llvm-434951.o(.rti_fn.6.end) refers to lto-llvm-434951.o(.text.rti_end) for rti_end
    lto-llvm-434951.o(.init_array.255) refers to lto-llvm-434951.o(.text.__perf_counter_init) for __perf_counter_init
    uldiv.o(.text) refers to llushr.o(.text) for __aeabi_llsr
    uldiv.o(.text) refers to llshl.o(.text) for __aeabi_llsl
    cpp_init.o(.emb_text) refers (Special) to entry8a.o(.ARM.Collect$$$$00000009) for _main_cpp_init$empty
    cpp_init.o(.init_array) refers (Special) to entry8a.o(.ARM.Collect$$$$00000009) for _main_cpp_init$empty
    cpp_init.o(.dummy_text) refers (Special) to entry8a.o(.ARM.Collect$$$$00000009) for _main_cpp_init$empty
    cpp_init.o(.text) refers (Special) to entry8a.o(.ARM.Collect$$$$00000009) for _main_cpp_init$empty
    dadd.o(.text) refers (Special) to iusefp.o(.text) for __I$use$fp
    dadd.o(.text) refers to llshl.o(.text) for __aeabi_llsl
    dadd.o(.text) refers to llsshr.o(.text) for __aeabi_lasr
    dadd.o(.text) refers to depilogue.o(.text) for _double_epilogue
    dmul.o(.text) refers (Special) to iusefp.o(.text) for __I$use$fp
    dmul.o(.text) refers to depilogue.o(.text) for _double_epilogue
    dcmple.o(.text) refers (Special) to iusefp.o(.text) for __I$use$fp
    dcmpge.o(.text) refers (Special) to iusefp.o(.text) for __I$use$fp
    dflti.o(.text) refers (Special) to iusefp.o(.text) for __I$use$fp
    dflti.o(.text) refers to depilogue.o(.text) for _double_epilogue
    dfltui.o(.text) refers (Special) to iusefp.o(.text) for __I$use$fp
    dfltui.o(.text) refers to depilogue.o(.text) for _double_epilogue
    dfixi.o(.text) refers (Special) to iusefp.o(.text) for __I$use$fp
    dfixi.o(.text) refers to llushr.o(.text) for __aeabi_llsr
    depilogue.o(.text) refers (Special) to iusefp.o(.text) for __I$use$fp
    depilogue.o(.text) refers to llshl.o(.text) for __aeabi_llsl
    depilogue.o(.text) refers to llushr.o(.text) for __aeabi_llsr


==============================================================================

Removing Unused input sections from the image.

    Removing startup_stm32f401xe.o(HEAP), (512 bytes).
    Removing lto-llvm-434951.o(.text), (0 bytes).
    Removing lto-llvm-434951.o(.ARM.exidx.text.hw_init), (8 bytes).
    Removing lto-llvm-434951.o(.ARM.exidx.text.SystemClock_Config), (8 bytes).
    Removing lto-llvm-434951.o(.ARM.exidx.text.MX_GPIO_Init), (8 bytes).
    Removing lto-llvm-434951.o(.ARM.exidx.text.MX_DMA_Init), (8 bytes).
    Removing lto-llvm-434951.o(.ARM.exidx.text.MX_SPI1_Init), (8 bytes).
    Removing lto-llvm-434951.o(.ARM.exidx.text.MX_USART1_UART_Init), (8 bytes).
    Removing lto-llvm-434951.o(.ARM.exidx.text.MX_I2C1_Init), (8 bytes).
    Removing lto-llvm-434951.o(.ARM.exidx.text.MX_USART2_UART_Init), (8 bytes).
    Removing lto-llvm-434951.o(.ARM.exidx.text.Error_Handler), (8 bytes).
    Removing lto-llvm-434951.o(.ARM.exidx.text.main), (8 bytes).
    Removing lto-llvm-434951.o(.ARM.exidx.text.HAL_TIM_PeriodElapsedCallback), (8 bytes).
    Removing lto-llvm-434951.o(.ARM.exidx.text.HAL_MspInit), (8 bytes).
    Removing lto-llvm-434951.o(.ARM.exidx.text.HAL_I2C_MspInit), (8 bytes).
    Removing lto-llvm-434951.o(.ARM.exidx.text.HAL_SPI_MspInit), (8 bytes).
    Removing lto-llvm-434951.o(.ARM.exidx.text.HAL_UART_MspInit), (8 bytes).
    Removing lto-llvm-434951.o(.ARM.exidx.text.HAL_InitTick), (8 bytes).
    Removing lto-llvm-434951.o(.ARM.exidx.text.NMI_Handler), (8 bytes).
    Removing lto-llvm-434951.o(.ARM.exidx.text.MemManage_Handler), (8 bytes).
    Removing lto-llvm-434951.o(.ARM.exidx.text.BusFault_Handler), (8 bytes).
    Removing lto-llvm-434951.o(.ARM.exidx.text.UsageFault_Handler), (8 bytes).
    Removing lto-llvm-434951.o(.ARM.exidx.text.DebugMon_Handler), (8 bytes).
    Removing lto-llvm-434951.o(.ARM.exidx.text.DMA1_Stream5_IRQHandler), (8 bytes).
    Removing lto-llvm-434951.o(.ARM.exidx.text.DMA1_Stream6_IRQHandler), (8 bytes).
    Removing lto-llvm-434951.o(.ARM.exidx.text.TIM1_UP_TIM10_IRQHandler), (8 bytes).
    Removing lto-llvm-434951.o(.ARM.exidx.text.SPI1_IRQHandler), (8 bytes).
    Removing lto-llvm-434951.o(.ARM.exidx.text.DMA2_Stream0_IRQHandler), (8 bytes).
    Removing lto-llvm-434951.o(.ARM.exidx.text.DMA2_Stream2_IRQHandler), (8 bytes).
    Removing lto-llvm-434951.o(.ARM.exidx.text.DMA2_Stream3_IRQHandler), (8 bytes).
    Removing lto-llvm-434951.o(.ARM.exidx.text.DMA2_Stream7_IRQHandler), (8 bytes).
    Removing lto-llvm-434951.o(.ARM.exidx.text.SystemInit), (8 bytes).
    Removing lto-llvm-434951.o(.ARM.exidx.text.SystemCoreClockUpdate), (8 bytes).
    Removing lto-llvm-434951.o(.ARM.exidx.text.HAL_Init), (8 bytes).
    Removing lto-llvm-434951.o(.ARM.exidx.text.HAL_IncTick), (8 bytes).
    Removing lto-llvm-434951.o(.ARM.exidx.text.HAL_GetTick), (8 bytes).
    Removing lto-llvm-434951.o(.ARM.exidx.text.HAL_NVIC_SetPriorityGrouping), (8 bytes).
    Removing lto-llvm-434951.o(.ARM.exidx.text.__NVIC_SetPriorityGrouping), (8 bytes).
    Removing lto-llvm-434951.o(.ARM.exidx.text.HAL_NVIC_SetPriority), (8 bytes).
    Removing lto-llvm-434951.o(.ARM.exidx.text.__NVIC_GetPriorityGrouping), (8 bytes).
    Removing lto-llvm-434951.o(.ARM.exidx.text.NVIC_EncodePriority), (8 bytes).
    Removing lto-llvm-434951.o(.ARM.exidx.text.__NVIC_SetPriority), (8 bytes).
    Removing lto-llvm-434951.o(.ARM.exidx.text.HAL_NVIC_EnableIRQ), (8 bytes).
    Removing lto-llvm-434951.o(.ARM.exidx.text.__NVIC_EnableIRQ), (8 bytes).
    Removing lto-llvm-434951.o(.ARM.exidx.text.HAL_SYSTICK_Config), (8 bytes).
    Removing lto-llvm-434951.o(.ARM.exidx.text.SysTick_Config), (8 bytes).
    Removing lto-llvm-434951.o(.ARM.exidx.text.HAL_DMA_Init), (8 bytes).
    Removing lto-llvm-434951.o(.ARM.exidx.text.DMA_CheckFifoParam), (8 bytes).
    Removing lto-llvm-434951.o(.ARM.exidx.text.DMA_CalcBaseAndBitshift), (8 bytes).
    Removing lto-llvm-434951.o(.ARM.exidx.text.DMA_SetConfig), (8 bytes).
    Removing lto-llvm-434951.o(.ARM.exidx.text.HAL_DMA_Start_IT), (8 bytes).
    Removing lto-llvm-434951.o(.ARM.exidx.text.HAL_DMA_Abort), (8 bytes).
    Removing lto-llvm-434951.o(.ARM.exidx.text.HAL_DMA_Abort_IT), (8 bytes).
    Removing lto-llvm-434951.o(.ARM.exidx.text.HAL_DMA_IRQHandler), (8 bytes).
    Removing lto-llvm-434951.o(.ARM.exidx.text.HAL_GPIO_Init), (8 bytes).
    Removing lto-llvm-434951.o(.ARM.exidx.text.HAL_GPIO_ReadPin), (8 bytes).
    Removing lto-llvm-434951.o(.ARM.exidx.text.HAL_GPIO_WritePin), (8 bytes).
    Removing lto-llvm-434951.o(.ARM.exidx.text.HAL_I2C_Init), (8 bytes).
    Removing lto-llvm-434951.o(.ARM.exidx.text.HAL_RCC_OscConfig), (8 bytes).
    Removing lto-llvm-434951.o(.ARM.exidx.text.HAL_RCC_ClockConfig), (8 bytes).
    Removing lto-llvm-434951.o(.ARM.exidx.text.HAL_RCC_GetSysClockFreq), (8 bytes).
    Removing lto-llvm-434951.o(.ARM.exidx.text.HAL_RCC_GetHCLKFreq), (8 bytes).
    Removing lto-llvm-434951.o(.ARM.exidx.text.HAL_RCC_GetPCLK1Freq), (8 bytes).
    Removing lto-llvm-434951.o(.ARM.exidx.text.HAL_RCC_GetPCLK2Freq), (8 bytes).
    Removing lto-llvm-434951.o(.ARM.exidx.text.HAL_RCC_GetClockConfig), (8 bytes).
    Removing lto-llvm-434951.o(.ARM.exidx.text.HAL_SPI_Init), (8 bytes).
    Removing lto-llvm-434951.o(.ARM.exidx.text.HAL_SPI_Transmit), (8 bytes).
    Removing lto-llvm-434951.o(.ARM.exidx.text.SPI_EndRxTxTransaction), (8 bytes).
    Removing lto-llvm-434951.o(.ARM.exidx.text.SPI_WaitFlagStateUntilTimeout), (8 bytes).
    Removing lto-llvm-434951.o(.ARM.exidx.text.HAL_SPI_Receive), (8 bytes).
    Removing lto-llvm-434951.o(.ARM.exidx.text.HAL_SPI_TransmitReceive), (8 bytes).
    Removing lto-llvm-434951.o(.ARM.exidx.text.SPI_EndRxTransaction), (8 bytes).
    Removing lto-llvm-434951.o(.ARM.exidx.text.HAL_SPI_ErrorCallback), (8 bytes).
    Removing lto-llvm-434951.o(.ARM.exidx.text.HAL_SPI_IRQHandler), (8 bytes).
    Removing lto-llvm-434951.o(.ARM.exidx.text.SPI_DMAAbortOnError), (8 bytes).
    Removing lto-llvm-434951.o(.ARM.exidx.text.HAL_TIM_Base_Init), (8 bytes).
    Removing lto-llvm-434951.o(.ARM.exidx.text.HAL_TIM_Base_MspInit), (8 bytes).
    Removing lto-llvm-434951.o(.ARM.exidx.text.TIM_Base_SetConfig), (8 bytes).
    Removing lto-llvm-434951.o(.ARM.exidx.text.HAL_TIM_Base_Start_IT), (8 bytes).
    Removing lto-llvm-434951.o(.ARM.exidx.text.HAL_TIM_PWM_PulseFinishedCallback), (8 bytes).
    Removing lto-llvm-434951.o(.ARM.exidx.text.HAL_TIM_IC_CaptureCallback), (8 bytes).
    Removing lto-llvm-434951.o(.ARM.exidx.text.HAL_TIM_IRQHandler), (8 bytes).
    Removing lto-llvm-434951.o(.ARM.exidx.text.HAL_TIM_OC_DelayElapsedCallback), (8 bytes).
    Removing lto-llvm-434951.o(.ARM.exidx.text.HAL_TIM_TriggerCallback), (8 bytes).
    Removing lto-llvm-434951.o(.ARM.exidx.text.HAL_TIMEx_CommutCallback), (8 bytes).
    Removing lto-llvm-434951.o(.ARM.exidx.text.HAL_TIMEx_BreakCallback), (8 bytes).
    Removing lto-llvm-434951.o(.ARM.exidx.text.HAL_UART_Init), (8 bytes).
    Removing lto-llvm-434951.o(.ARM.exidx.text.UART_SetConfig), (8 bytes).
    Removing lto-llvm-434951.o(.ARM.exidx.text.HAL_UART_Transmit), (8 bytes).
    Removing lto-llvm-434951.o(.ARM.exidx.text.UART_WaitOnFlagUntilTimeout), (8 bytes).
    Removing lto-llvm-434951.o(.ARM.exidx.text.HAL_UART_Transmit_DMA), (8 bytes).
    Removing lto-llvm-434951.o(.ARM.exidx.text.UART_DMATransmitCplt), (8 bytes).
    Removing lto-llvm-434951.o(.ARM.exidx.text.UART_DMATxHalfCplt), (8 bytes).
    Removing lto-llvm-434951.o(.ARM.exidx.text.UART_DMAError), (8 bytes).
    Removing lto-llvm-434951.o(.ARM.exidx.text.UART_EndTxTransfer), (8 bytes).
    Removing lto-llvm-434951.o(.ARM.exidx.text.UART_EndRxTransfer), (8 bytes).
    Removing lto-llvm-434951.o(.ARM.exidx.text.HAL_UART_ErrorCallback), (8 bytes).
    Removing lto-llvm-434951.o(.ARM.exidx.text.HAL_UART_TxHalfCpltCallback), (8 bytes).
    Removing lto-llvm-434951.o(.ARM.exidx.text.HAL_UART_TxCpltCallback), (8 bytes).
    Removing lto-llvm-434951.o(.ARM.exidx.text.UART_Start_Receive_DMA), (8 bytes).
    Removing lto-llvm-434951.o(.ARM.exidx.text.UART_DMAReceiveCplt), (8 bytes).
    Removing lto-llvm-434951.o(.ARM.exidx.text.UART_DMARxHalfCplt), (8 bytes).
    Removing lto-llvm-434951.o(.ARM.exidx.text.HAL_UART_RxHalfCpltCallback), (8 bytes).
    Removing lto-llvm-434951.o(.ARM.exidx.text.HAL_UART_RxCpltCallback), (8 bytes).
    Removing lto-llvm-434951.o(.ARM.exidx.text.HAL_UARTEx_ReceiveToIdle_DMA), (8 bytes).
    Removing lto-llvm-434951.o(.ARM.exidx.text.HAL_UART_IRQHandler), (8 bytes).
    Removing lto-llvm-434951.o(.ARM.exidx.text.UART_Receive_IT), (8 bytes).
    Removing lto-llvm-434951.o(.ARM.exidx.text.UART_DMAAbortOnError), (8 bytes).
    Removing lto-llvm-434951.o(.ARM.exidx.text.UART_Transmit_IT), (8 bytes).
    Removing lto-llvm-434951.o(.ARM.exidx.text.UART_EndTransmit_IT), (8 bytes).
    Removing lto-llvm-434951.o(.text.rt_heap_begin_get), (2 bytes).
    Removing lto-llvm-434951.o(.ARM.exidx.text.rt_heap_begin_get), (8 bytes).
    Removing lto-llvm-434951.o(.text.rt_heap_end_get), (2 bytes).
    Removing lto-llvm-434951.o(.ARM.exidx.text.rt_heap_end_get), (8 bytes).
    Removing lto-llvm-434951.o(.ARM.exidx.text.SysTick_Handler), (8 bytes).
    Removing lto-llvm-434951.o(.ARM.exidx.text.rt_hw_board_init), (8 bytes).
    Removing lto-llvm-434951.o(.ARM.exidx.text.hello), (8 bytes).
    Removing lto-llvm-434951.o(.ARM.exidx.text.version), (8 bytes).
    Removing lto-llvm-434951.o(.ARM.exidx.text.list_thread), (8 bytes).
    Removing lto-llvm-434951.o(.ARM.exidx.text.list_find_init), (8 bytes).
    Removing lto-llvm-434951.o(.ARM.exidx.text.object_split), (8 bytes).
    Removing lto-llvm-434951.o(.ARM.exidx.text.list_get_next), (8 bytes).
    Removing lto-llvm-434951.o(.ARM.exidx.text.list_sem), (8 bytes).
    Removing lto-llvm-434951.o(.ARM.exidx.text.rt_list_isempty), (8 bytes).
    Removing lto-llvm-434951.o(.ARM.exidx.text.rt_list_len), (8 bytes).
    Removing lto-llvm-434951.o(.ARM.exidx.text.show_wait_queue), (8 bytes).
    Removing lto-llvm-434951.o(.ARM.exidx.text.list_event), (8 bytes).
    Removing lto-llvm-434951.o(.ARM.exidx.text.list_mutex), (8 bytes).
    Removing lto-llvm-434951.o(.ARM.exidx.text.list_mailbox), (8 bytes).
    Removing lto-llvm-434951.o(.ARM.exidx.text.list_mempool), (8 bytes).
    Removing lto-llvm-434951.o(.ARM.exidx.text.list_timer), (8 bytes).
    Removing lto-llvm-434951.o(.ARM.exidx.text.list), (8 bytes).
    Removing lto-llvm-434951.o(.ARM.exidx.text.msh_help), (8 bytes).
    Removing lto-llvm-434951.o(.ARM.exidx.text.cmd_ps), (8 bytes).
    Removing lto-llvm-434951.o(.ARM.exidx.text.cmd_free), (8 bytes).
    Removing lto-llvm-434951.o(.text.msh_is_used), (2 bytes).
    Removing lto-llvm-434951.o(.ARM.exidx.text.msh_is_used), (8 bytes).
    Removing lto-llvm-434951.o(.ARM.exidx.text.msh_exec), (8 bytes).
    Removing lto-llvm-434951.o(.ARM.exidx.text._msh_exec_cmd), (8 bytes).
    Removing lto-llvm-434951.o(.ARM.exidx.text.msh_get_cmd), (8 bytes).
    Removing lto-llvm-434951.o(.ARM.exidx.text.msh_split), (8 bytes).
    Removing lto-llvm-434951.o(.ARM.exidx.text.msh_auto_complete), (8 bytes).
    Removing lto-llvm-434951.o(.ARM.exidx.text.str_common), (8 bytes).
    Removing lto-llvm-434951.o(.ARM.exidx.text.finsh_system_init), (8 bytes).
    Removing lto-llvm-434951.o(.ARM.exidx.text.finsh_system_function_init), (8 bytes).
    Removing lto-llvm-434951.o(.ARM.exidx.text.finsh_thread_entry), (8 bytes).
    Removing lto-llvm-434951.o(.ARM.exidx.text.finsh_set_prompt_mode), (8 bytes).
    Removing lto-llvm-434951.o(.ARM.exidx.text.finsh_get_prompt), (8 bytes).
    Removing lto-llvm-434951.o(.ARM.exidx.text.finsh_getchar), (8 bytes).
    Removing lto-llvm-434951.o(.ARM.exidx.text.shell_auto_complete), (8 bytes).
    Removing lto-llvm-434951.o(.ARM.exidx.text.rt_hw_stack_init), (8 bytes).
    Removing lto-llvm-434951.o(.ARM.exidx.text.rt_hw_hard_fault_exception), (8 bytes).
    Removing lto-llvm-434951.o(.ARM.exidx.text.hard_fault_track), (8 bytes).
    Removing lto-llvm-434951.o(.ARM.exidx.text.bus_fault_track), (8 bytes).
    Removing lto-llvm-434951.o(.ARM.exidx.text.mem_manage_fault_track), (8 bytes).
    Removing lto-llvm-434951.o(.ARM.exidx.text.usage_fault_track), (8 bytes).
    Removing lto-llvm-434951.o(.ARM.exidx.text.rt_tick_get), (8 bytes).
    Removing lto-llvm-434951.o(.ARM.exidx.text.rt_tick_increase), (8 bytes).
    Removing lto-llvm-434951.o(.ARM.exidx.text.rt_tick_from_millisecond), (8 bytes).
    Removing lto-llvm-434951.o(.ARM.exidx.text.rti_start), (8 bytes).
    Removing lto-llvm-434951.o(.ARM.exidx.text.rti_board_start), (8 bytes).
    Removing lto-llvm-434951.o(.ARM.exidx.text.rti_board_end), (8 bytes).
    Removing lto-llvm-434951.o(.ARM.exidx.text.rti_end), (8 bytes).
    Removing lto-llvm-434951.o(.ARM.exidx.text.rt_components_board_init), (8 bytes).
    Removing lto-llvm-434951.o(.ARM.exidx.text.rt_components_init), (8 bytes).
    Removing lto-llvm-434951.o(.ARM.exidx.text.$Sub$$main), (8 bytes).
    Removing lto-llvm-434951.o(.ARM.exidx.text.rtthread_startup), (8 bytes).
    Removing lto-llvm-434951.o(.ARM.exidx.text.rt_application_init), (8 bytes).
    Removing lto-llvm-434951.o(.ARM.exidx.text.main_thread_entry), (8 bytes).
    Removing lto-llvm-434951.o(.ARM.exidx.text.rt_thread_idle_sethook), (8 bytes).
    Removing lto-llvm-434951.o(.ARM.exidx.text.rt_thread_idle_excute), (8 bytes).
    Removing lto-llvm-434951.o(.ARM.exidx.text._has_defunct_thread), (8 bytes).
    Removing lto-llvm-434951.o(.ARM.exidx.text.rt_list_remove), (8 bytes).
    Removing lto-llvm-434951.o(.ARM.exidx.text.rt_thread_idle_init), (8 bytes).
    Removing lto-llvm-434951.o(.ARM.exidx.text.rt_thread_idle_entry), (8 bytes).
    Removing lto-llvm-434951.o(.ARM.exidx.text.rt_sem_init), (8 bytes).
    Removing lto-llvm-434951.o(.ARM.exidx.text.rt_ipc_object_init), (8 bytes).
    Removing lto-llvm-434951.o(.ARM.exidx.text.rt_list_init), (8 bytes).
    Removing lto-llvm-434951.o(.ARM.exidx.text.rt_list_isempty.164), (8 bytes).
    Removing lto-llvm-434951.o(.ARM.exidx.text.rt_sem_create), (8 bytes).
    Removing lto-llvm-434951.o(.ARM.exidx.text.rt_sem_take), (8 bytes).
    Removing lto-llvm-434951.o(.ARM.exidx.text.rt_ipc_list_suspend), (8 bytes).
    Removing lto-llvm-434951.o(.ARM.exidx.text.rt_list_insert_before), (8 bytes).
    Removing lto-llvm-434951.o(.ARM.exidx.text.rt_sem_release), (8 bytes).
    Removing lto-llvm-434951.o(.ARM.exidx.text.rt_ipc_list_resume), (8 bytes).
    Removing lto-llvm-434951.o(.ARM.exidx.text.rt_mutex_create), (8 bytes).
    Removing lto-llvm-434951.o(.ARM.exidx.text.rt_mutex_take), (8 bytes).
    Removing lto-llvm-434951.o(.ARM.exidx.text.rt_mutex_release), (8 bytes).
    Removing lto-llvm-434951.o(.ARM.exidx.text.rt_event_create), (8 bytes).
    Removing lto-llvm-434951.o(.ARM.exidx.text.rt_event_send), (8 bytes).
    Removing lto-llvm-434951.o(.ARM.exidx.text.rt_event_recv), (8 bytes).
    Removing lto-llvm-434951.o(.ARM.exidx.text.rt_mb_create), (8 bytes).
    Removing lto-llvm-434951.o(.ARM.exidx.text.rt_mb_send_wait), (8 bytes).
    Removing lto-llvm-434951.o(.ARM.exidx.text.rt_mb_send), (8 bytes).
    Removing lto-llvm-434951.o(.ARM.exidx.text.rt_mb_recv), (8 bytes).
    Removing lto-llvm-434951.o(.ARM.exidx.text.rt_interrupt_enter), (8 bytes).
    Removing lto-llvm-434951.o(.ARM.exidx.text.rt_interrupt_leave), (8 bytes).
    Removing lto-llvm-434951.o(.ARM.exidx.text.rt_interrupt_get_nest), (8 bytes).
    Removing lto-llvm-434951.o(.ARM.exidx.text.rt_memset), (8 bytes).
    Removing lto-llvm-434951.o(.text.rt_memcpy), (210 bytes).
    Removing lto-llvm-434951.o(.ARM.exidx.text.rt_memcpy), (8 bytes).
    Removing lto-llvm-434951.o(.ARM.exidx.text.rt_memmove), (8 bytes).
    Removing lto-llvm-434951.o(.text.rt_strlen), (38 bytes).
    Removing lto-llvm-434951.o(.ARM.exidx.text.rt_strlen), (8 bytes).
    Removing lto-llvm-434951.o(.ARM.exidx.text.rt_strncpy), (8 bytes).
    Removing lto-llvm-434951.o(.text.strdup), (58 bytes).
    Removing lto-llvm-434951.o(.ARM.exidx.text.strdup), (8 bytes).
    Removing lto-llvm-434951.o(.ARM.exidx.text.rt_show_version), (8 bytes).
    Removing lto-llvm-434951.o(.ARM.exidx.text.rt_kprintf), (8 bytes).
    Removing lto-llvm-434951.o(.ARM.exidx.text.rt_vsnprintf), (8 bytes).
    Removing lto-llvm-434951.o(.ARM.exidx.text.skip_atoi), (8 bytes).
    Removing lto-llvm-434951.o(.ARM.exidx.text.print_number), (8 bytes).
    Removing lto-llvm-434951.o(.ARM.exidx.text.divide), (8 bytes).
    Removing lto-llvm-434951.o(.ARM.exidx.text.rt_vsprintf), (8 bytes).
    Removing lto-llvm-434951.o(.ARM.exidx.text.rt_sprintf), (8 bytes).
    Removing lto-llvm-434951.o(.ARM.exidx.text.__rt_ffs), (8 bytes).
    Removing lto-llvm-434951.o(.ARM.exidx.text.rt_assert_handler), (8 bytes).
    Removing lto-llvm-434951.o(.ARM.exidx.text.list_mem), (8 bytes).
    Removing lto-llvm-434951.o(.ARM.exidx.text.rt_system_heap_init), (8 bytes).
    Removing lto-llvm-434951.o(.ARM.exidx.text.rt_malloc), (8 bytes).
    Removing lto-llvm-434951.o(.ARM.exidx.text.rt_free), (8 bytes).
    Removing lto-llvm-434951.o(.ARM.exidx.text.plug_holes), (8 bytes).
    Removing lto-llvm-434951.o(.ARM.exidx.text.rt_calloc), (8 bytes).
    Removing lto-llvm-434951.o(.ARM.exidx.text.rt_object_get_information), (8 bytes).
    Removing lto-llvm-434951.o(.ARM.exidx.text.rt_object_init), (8 bytes).
    Removing lto-llvm-434951.o(.ARM.exidx.text.rt_list_insert_after.260), (8 bytes).
    Removing lto-llvm-434951.o(.ARM.exidx.text.rt_object_detach), (8 bytes).
    Removing lto-llvm-434951.o(.ARM.exidx.text.rt_list_remove.264), (8 bytes).
    Removing lto-llvm-434951.o(.ARM.exidx.text.rt_object_allocate), (8 bytes).
    Removing lto-llvm-434951.o(.ARM.exidx.text.rt_object_delete), (8 bytes).
    Removing lto-llvm-434951.o(.ARM.exidx.text.rt_object_is_systemobject), (8 bytes).
    Removing lto-llvm-434951.o(.ARM.exidx.text.rt_object_get_type), (8 bytes).
    Removing lto-llvm-434951.o(.ARM.exidx.text.rt_system_scheduler_init), (8 bytes).
    Removing lto-llvm-434951.o(.ARM.exidx.text.rt_list_init.280), (8 bytes).
    Removing lto-llvm-434951.o(.ARM.exidx.text.rt_system_scheduler_start), (8 bytes).
    Removing lto-llvm-434951.o(.ARM.exidx.text.rt_schedule), (8 bytes).
    Removing lto-llvm-434951.o(.ARM.exidx.text._rt_scheduler_stack_check), (8 bytes).
    Removing lto-llvm-434951.o(.ARM.exidx.text.rt_schedule_insert_thread), (8 bytes).
    Removing lto-llvm-434951.o(.ARM.exidx.text.rt_list_insert_before.288), (8 bytes).
    Removing lto-llvm-434951.o(.ARM.exidx.text.rt_schedule_remove_thread), (8 bytes).
    Removing lto-llvm-434951.o(.ARM.exidx.text.rt_list_remove.289), (8 bytes).
    Removing lto-llvm-434951.o(.ARM.exidx.text.rt_list_isempty.290), (8 bytes).
    Removing lto-llvm-434951.o(.ARM.exidx.text.rt_enter_critical), (8 bytes).
    Removing lto-llvm-434951.o(.ARM.exidx.text.rt_exit_critical), (8 bytes).
    Removing lto-llvm-434951.o(.ARM.exidx.text.rt_thread_exit), (8 bytes).
    Removing lto-llvm-434951.o(.ARM.exidx.text._thread_cleanup_execute), (8 bytes).
    Removing lto-llvm-434951.o(.ARM.exidx.text.rt_list_insert_after.295), (8 bytes).
    Removing lto-llvm-434951.o(.ARM.exidx.text.rt_thread_init), (8 bytes).
    Removing lto-llvm-434951.o(.ARM.exidx.text._rt_thread_init), (8 bytes).
    Removing lto-llvm-434951.o(.ARM.exidx.text.rt_list_init.300), (8 bytes).
    Removing lto-llvm-434951.o(.ARM.exidx.text.rt_thread_timeout), (8 bytes).
    Removing lto-llvm-434951.o(.ARM.exidx.text.rt_list_remove.304), (8 bytes).
    Removing lto-llvm-434951.o(.ARM.exidx.text.rt_thread_self), (8 bytes).
    Removing lto-llvm-434951.o(.ARM.exidx.text.rt_thread_startup), (8 bytes).
    Removing lto-llvm-434951.o(.ARM.exidx.text.rt_thread_resume), (8 bytes).
    Removing lto-llvm-434951.o(.ARM.exidx.text.rt_thread_detach), (8 bytes).
    Removing lto-llvm-434951.o(.ARM.exidx.text.rt_thread_create), (8 bytes).
    Removing lto-llvm-434951.o(.ARM.exidx.text.rt_thread_delete), (8 bytes).
    Removing lto-llvm-434951.o(.ARM.exidx.text.rt_thread_yield), (8 bytes).
    Removing lto-llvm-434951.o(.ARM.exidx.text.rt_list_insert_before.318), (8 bytes).
    Removing lto-llvm-434951.o(.ARM.exidx.text.rt_thread_sleep), (8 bytes).
    Removing lto-llvm-434951.o(.ARM.exidx.text.rt_thread_suspend), (8 bytes).
    Removing lto-llvm-434951.o(.ARM.exidx.text.rt_thread_delay), (8 bytes).
    Removing lto-llvm-434951.o(.ARM.exidx.text.rt_thread_mdelay), (8 bytes).
    Removing lto-llvm-434951.o(.ARM.exidx.text.rt_thread_control), (8 bytes).
    Removing lto-llvm-434951.o(.ARM.exidx.text.rt_timer_init), (8 bytes).
    Removing lto-llvm-434951.o(.ARM.exidx.text._rt_timer_init), (8 bytes).
    Removing lto-llvm-434951.o(.ARM.exidx.text.rt_list_init.327), (8 bytes).
    Removing lto-llvm-434951.o(.ARM.exidx.text.rt_timer_detach), (8 bytes).
    Removing lto-llvm-434951.o(.ARM.exidx.text._rt_timer_remove), (8 bytes).
    Removing lto-llvm-434951.o(.ARM.exidx.text.rt_list_remove.332), (8 bytes).
    Removing lto-llvm-434951.o(.ARM.exidx.text.rt_timer_create), (8 bytes).
    Removing lto-llvm-434951.o(.ARM.exidx.text.rt_timer_start), (8 bytes).
    Removing lto-llvm-434951.o(.ARM.exidx.text.rt_list_insert_after.337), (8 bytes).
    Removing lto-llvm-434951.o(.ARM.exidx.text.rt_timer_stop), (8 bytes).
    Removing lto-llvm-434951.o(.ARM.exidx.text.rt_timer_control), (8 bytes).
    Removing lto-llvm-434951.o(.ARM.exidx.text.rt_timer_check), (8 bytes).
    Removing lto-llvm-434951.o(.ARM.exidx.text.rt_list_isempty.344), (8 bytes).
    Removing lto-llvm-434951.o(.ARM.exidx.text.rt_timer_list_next_timeout), (8 bytes).
    Removing lto-llvm-434951.o(.ARM.exidx.text.rt_soft_timer_check), (8 bytes).
    Removing lto-llvm-434951.o(.ARM.exidx.text.rt_system_timer_init), (8 bytes).
    Removing lto-llvm-434951.o(.ARM.exidx.text.rt_system_timer_thread_init), (8 bytes).
    Removing lto-llvm-434951.o(.ARM.exidx.text.rt_thread_timer_entry), (8 bytes).
    Removing lto-llvm-434951.o(.ARM.exidx.text.app_main_control_init), (8 bytes).
    Removing lto-llvm-434951.o(.ARM.exidx.text.timeout_entry), (8 bytes).
    Removing lto-llvm-434951.o(.ARM.exidx.text.app_main_control_main), (8 bytes).
    Removing lto-llvm-434951.o(.ARM.exidx.text.sub_thread_control_init), (8 bytes).
    Removing lto-llvm-434951.o(.ARM.exidx.text.sub_thread_control_entry), (8 bytes).
    Removing lto-llvm-434951.o(.ARM.exidx.text.release_muscle), (8 bytes).
    Removing lto-llvm-434951.o(.ARM.exidx.text.dev_ad7490_generate_control_seq), (8 bytes).
    Removing lto-llvm-434951.o(.ARM.exidx.text.dev_ad7490_fetch_data), (8 bytes).
    Removing lto-llvm-434951.o(.ARM.exidx.text.dev_ad7490_fetch_data_in_independent_mode), (8 bytes).
    Removing lto-llvm-434951.o(.ARM.exidx.text.dev_ad7490_fetch_data_in_regular_scan_mode), (8 bytes).
    Removing lto-llvm-434951.o(.ARM.exidx.text.dev_ad7490_fetch_data_in_continuous_mode), (8 bytes).
    Removing lto-llvm-434951.o(.ARM.exidx.text.dev_ad7490_power_up), (8 bytes).
    Removing lto-llvm-434951.o(.ARM.exidx.text.dev_ad7490_decode_data), (8 bytes).
    Removing lto-llvm-434951.o(.ARM.exidx.text.__perf_counter_init), (8 bytes).
    Removing lto-llvm-434951.o(.ARM.exidx.text.init_cycle_counter), (8 bytes).
    Removing lto-llvm-434951.o(.ARM.exidx.text.start_cycle_counter), (8 bytes).
    Removing lto-llvm-434951.o(.ARM.exidx.text.stop_cycle_counter), (8 bytes).
    Removing lto-llvm-434951.o(.ARM.exidx.text.user_code_insert_to_systick_handler), (8 bytes).
    Removing lto-llvm-434951.o(.ARM.exidx.text.delay_us), (8 bytes).
    Removing lto-llvm-434951.o(.ARM.exidx.text.rt_ringbuffer_init), (8 bytes).
    Removing lto-llvm-434951.o(.ARM.exidx.text.rt_ringbuffer_put), (8 bytes).
    Removing lto-llvm-434951.o(.ARM.exidx.text.rt_ringbuffer_data_len), (8 bytes).
    Removing lto-llvm-434951.o(.ARM.exidx.text.rt_ringbuffer_status), (8 bytes).
    Removing lto-llvm-434951.o(.ARM.exidx.text.rt_ringbuffer_getchar), (8 bytes).
    Removing lto-llvm-434951.o(.ARM.exidx.text.serv_ad7490_fetcher_init), (8 bytes).
    Removing lto-llvm-434951.o(.ARM.exidx.text.serv_ad7490_fetcher_main), (8 bytes).
    Removing lto-llvm-434951.o(.ARM.exidx.text.serv_init), (8 bytes).
    Removing lto-llvm-434951.o(.ARM.exidx.text.serv_key_listener_init), (8 bytes).
    Removing lto-llvm-434951.o(.ARM.exidx.text.serv_key_listener_main), (8 bytes).
    Removing lto-llvm-434951.o(.ARM.exidx.text.serv_led_sign_init), (8 bytes).
    Removing lto-llvm-434951.o(.ARM.exidx.text.serv_led_sign_idle), (8 bytes).
    Removing lto-llvm-434951.o(.ARM.exidx.text.serv_led_sign_send_event), (8 bytes).
    Removing lto-llvm-434951.o(.ARM.exidx.text.serv_led_sign_hw_init), (8 bytes).
    Removing lto-llvm-434951.o(.ARM.exidx.text.USART1_IRQHandler), (8 bytes).
    Removing lto-llvm-434951.o(.ARM.exidx.text.HAL_UARTEx_RxEventCallback), (8 bytes).
    Removing lto-llvm-434951.o(.ARM.exidx.text.rt_hw_console_output), (8 bytes).
    Removing lto-llvm-434951.o(.ARM.exidx.text.rt_hw_console_getchar), (8 bytes).
    Removing lto-llvm-434951.o(.ARM.exidx.text.dma_io_construct), (8 bytes).
    Removing lto-llvm-434951.o(.ARM.exidx.text.dma_printf), (8 bytes).
    Removing lto-llvm-434951.o(.ARM.exidx.text.dma_output), (8 bytes).
    Removing lto-llvm-434951.o(.ARM.exidx.text.dma_io_echo), (8 bytes).
    Removing lto-llvm-434951.o(.ARM.exidx.text.dma_io_get_reclength), (8 bytes).
    Removing lto-llvm-434951.o(.ARM.exidx.text.dma_io_setRX_IT), (8 bytes).
    Removing lto-llvm-434951.o(.ARM.use_no_argv), (4 bytes).

327 unused section(s) (total 3372 bytes) removed from the image.

==============================================================================

Image Symbol Table

    Local Symbols

    Symbol Name                              Value     Ov Type        Size  Object(Section)

    ../clib/microlib/cpp/cpp_init.c          0x00000000   Number         0  cpp_init.o ABSOLUTE
    ../clib/microlib/cpp/cpp_init.c          0x00000000   Number         0  cpp_init.o ABSOLUTE
    ../clib/microlib/division.c              0x00000000   Number         0  uldiv.o ABSOLUTE
    ../clib/microlib/init/entry.s            0x00000000   Number         0  entry.o ABSOLUTE
    ../clib/microlib/init/entry.s            0x00000000   Number         0  entry2.o ABSOLUTE
    ../clib/microlib/init/entry.s            0x00000000   Number         0  entry5.o ABSOLUTE
    ../clib/microlib/init/entry.s            0x00000000   Number         0  entry7a.o ABSOLUTE
    ../clib/microlib/init/entry.s            0x00000000   Number         0  entry7b.o ABSOLUTE
    ../clib/microlib/init/entry.s            0x00000000   Number         0  entry8a.o ABSOLUTE
    ../clib/microlib/init/entry.s            0x00000000   Number         0  entry8b.o ABSOLUTE
    ../clib/microlib/init/entry.s            0x00000000   Number         0  entry9a.o ABSOLUTE
    ../clib/microlib/init/entry.s            0x00000000   Number         0  entry9b.o ABSOLUTE
    ../clib/microlib/init/entry.s            0x00000000   Number         0  entry10a.o ABSOLUTE
    ../clib/microlib/init/entry.s            0x00000000   Number         0  entry10b.o ABSOLUTE
    ../clib/microlib/init/entry.s            0x00000000   Number         0  entry11a.o ABSOLUTE
    ../clib/microlib/init/entry.s            0x00000000   Number         0  entry11b.o ABSOLUTE
    ../clib/microlib/longlong.c              0x00000000   Number         0  llshl.o ABSOLUTE
    ../clib/microlib/longlong.c              0x00000000   Number         0  llushr.o ABSOLUTE
    ../clib/microlib/longlong.c              0x00000000   Number         0  llsshr.o ABSOLUTE
    ../clib/microlib/string/memcpy.c         0x00000000   Number         0  memcpya.o ABSOLUTE
    ../clib/microlib/string/memcpy.c         0x00000000   Number         0  memcpyb.o ABSOLUTE
    ../clib/microlib/string/memset.c         0x00000000   Number         0  memseta.o ABSOLUTE
    ../clib/microlib/string/strcat.c         0x00000000   Number         0  strcat.o ABSOLUTE
    ../clib/microlib/string/strcpy.c         0x00000000   Number         0  strcpy.o ABSOLUTE
    ../clib/microlib/string/strlen.c         0x00000000   Number         0  strlen.o ABSOLUTE
    ../clib/microlib/string/strncmp.c        0x00000000   Number         0  strncmp.o ABSOLUTE
    ../clib/microlib/string/strncpy.c        0x00000000   Number         0  strncpy.o ABSOLUTE
    ../clib/microlib/stubs.s                 0x00000000   Number         0  iusefp.o ABSOLUTE
    ../clib/r_arm_target.c                   0x00000000   Number         0  __ARM_resolve_target1.o ABSOLUTE
    ../clib/r_arm_target.c                   0x00000000   Number         0  __ARM_resolve_target1_abs32.o ABSOLUTE
    ../fplib/microlib/fpadd.c                0x00000000   Number         0  dadd.o ABSOLUTE
    ../fplib/microlib/fpcmp.c                0x00000000   Number         0  dcmple.o ABSOLUTE
    ../fplib/microlib/fpcmp.c                0x00000000   Number         0  dcmpge.o ABSOLUTE
    ../fplib/microlib/fpepilogue.c           0x00000000   Number         0  depilogue.o ABSOLUTE
    ../fplib/microlib/fpfix.c                0x00000000   Number         0  dfixi.o ABSOLUTE
    ../fplib/microlib/fpflt.c                0x00000000   Number         0  dflti.o ABSOLUTE
    ../fplib/microlib/fpflt.c                0x00000000   Number         0  dfltui.o ABSOLUTE
    ../fplib/microlib/fpmul.c                0x00000000   Number         0  dmul.o ABSOLUTE
    ./startup_stm32f401xe.s                  0x00000000   Number         0  startup_stm32f401xe.o ABSOLUTE
    dc.s                                     0x00000000   Number         0  dc.o ABSOLUTE
    h:/CodeTestZone/HPT_SYS_v2.0/Middlewares/Third_Party/RealThread_RTOS/libcpu/arm/cortex-m4/context_rvds.S 0x00000000   Number         0  context_rvds.o ABSOLUTE
    h:/CodeTestZone/HPT_SYS_v2.0/Packages/perf_conuter/systick_wrapper_ual.s 0x00000000   Number         0  systick_wrapper_ual.o ABSOLUTE
    handlers.s                               0x00000000   Number         0  handlers.o ABSOLUTE
    init.s                                   0x00000000   Number         0  init.o ABSOLUTE
    ld-temp.o                                0x00000000   Number         0  lto-llvm-434951.o ABSOLUTE
    RESET                                    0x08000000   Section      404  startup_stm32f401xe.o(RESET)
    .ARM.Collect$$$$00000000                 0x08000194   Section        0  entry.o(.ARM.Collect$$$$00000000)
    .ARM.Collect$$$$00000001                 0x08000194   Section        4  entry2.o(.ARM.Collect$$$$00000001)
    .ARM.Collect$$$$00000004                 0x08000198   Section        4  entry5.o(.ARM.Collect$$$$00000004)
    .ARM.Collect$$$$00000008                 0x0800019c   Section        0  entry7b.o(.ARM.Collect$$$$00000008)
    .ARM.Collect$$$$00000009                 0x0800019c   Section        4  entry8a.o(.ARM.Collect$$$$00000009)
    .ARM.Collect$$$$0000000A                 0x080001a0   Section        0  entry8b.o(.ARM.Collect$$$$0000000A)
    .ARM.Collect$$$$0000000B                 0x080001a0   Section        8  entry9a.o(.ARM.Collect$$$$0000000B)
    __lit__00000000                          0x080001a8   Data           4  entry2.o(.ARM.Collect$$$$00002712)
    .ARM.Collect$$$$0000000D                 0x080001a8   Section        0  entry10a.o(.ARM.Collect$$$$0000000D)
    .ARM.Collect$$$$0000000F                 0x080001a8   Section        0  entry11a.o(.ARM.Collect$$$$0000000F)
    .ARM.Collect$$$$00002712                 0x080001a8   Section        4  entry2.o(.ARM.Collect$$$$00002712)
    $v0                                      0x080001ac   Number         0  context_rvds.o(.text)
    .text                                    0x080001ac   Section      308  context_rvds.o(.text)
    $v0                                      0x080002e0   Number         0  systick_wrapper_ual.o(.text)
    .text                                    0x080002e0   Section       32  systick_wrapper_ual.o(.text)
    $v0                                      0x08000300   Number         0  startup_stm32f401xe.o(.text)
    .text                                    0x08000300   Section       36  startup_stm32f401xe.o(.text)
    .text                                    0x08000324   Section        0  strcat.o(.text)
    .text                                    0x0800033c   Section        0  strlen.o(.text)
    .text                                    0x0800034a   Section        0  strcpy.o(.text)
    .text                                    0x0800035c   Section        0  strncmp.o(.text)
    .text                                    0x0800037c   Section       36  init.o(.text)
    .text                                    0x080003a0   Section        0  uldiv.o(.text)
    .text                                    0x08000402   Section        0  memcpya.o(.text)
    .text                                    0x08000426   Section        0  memseta.o(.text)
    .text                                    0x0800044c   Section        0  cpp_init.o(.text)
    .text                                    0x0800046c   Section        0  dadd.o(.text)
    .text                                    0x080005ba   Section        0  dmul.o(.text)
    .text                                    0x0800069e   Section        0  dcmple.o(.text)
    .text                                    0x080006d4   Section        0  dcmpge.o(.text)
    .text                                    0x0800070a   Section        0  dflti.o(.text)
    .text                                    0x0800072c   Section        0  dfltui.o(.text)
    .text                                    0x08000746   Section        0  dfixi.o(.text)
    .text                                    0x08000784   Section        0  llshl.o(.text)
    .text                                    0x080007a2   Section        0  llushr.o(.text)
    .text                                    0x080007c2   Section        0  llsshr.o(.text)
    .text                                    0x080007e6   Section        0  iusefp.o(.text)
    .text                                    0x080007e6   Section        0  depilogue.o(.text)
    [Anonymous Symbol]                       0x080008a0   Section        0  lto-llvm-434951.o(.text.$Sub$$main)
    [Anonymous Symbol]                       0x080008ac   Section        0  lto-llvm-434951.o(.text.BusFault_Handler)
    [Anonymous Symbol]                       0x080008b0   Section        0  lto-llvm-434951.o(.text.DMA1_Stream5_IRQHandler)
    [Anonymous Symbol]                       0x080008c0   Section        0  lto-llvm-434951.o(.text.DMA1_Stream6_IRQHandler)
    [Anonymous Symbol]                       0x080008d0   Section        0  lto-llvm-434951.o(.text.DMA2_Stream0_IRQHandler)
    [Anonymous Symbol]                       0x080008e0   Section        0  lto-llvm-434951.o(.text.DMA2_Stream2_IRQHandler)
    [Anonymous Symbol]                       0x080008f0   Section        0  lto-llvm-434951.o(.text.DMA2_Stream3_IRQHandler)
    [Anonymous Symbol]                       0x08000900   Section        0  lto-llvm-434951.o(.text.DMA2_Stream7_IRQHandler)
    DMA_CalcBaseAndBitshift                  0x08000911   Thumb Code    86  lto-llvm-434951.o(.text.DMA_CalcBaseAndBitshift)
    [Anonymous Symbol]                       0x08000910   Section        0  lto-llvm-434951.o(.text.DMA_CalcBaseAndBitshift)
    DMA_CheckFifoParam                       0x08000969   Thumb Code   210  lto-llvm-434951.o(.text.DMA_CheckFifoParam)
    [Anonymous Symbol]                       0x08000968   Section        0  lto-llvm-434951.o(.text.DMA_CheckFifoParam)
    DMA_SetConfig                            0x08000a3d   Thumb Code    80  lto-llvm-434951.o(.text.DMA_SetConfig)
    [Anonymous Symbol]                       0x08000a3c   Section        0  lto-llvm-434951.o(.text.DMA_SetConfig)
    [Anonymous Symbol]                       0x08000a8c   Section        0  lto-llvm-434951.o(.text.DebugMon_Handler)
    Error_Handler                            0x08000a91   Thumb Code    14  lto-llvm-434951.o(.text.Error_Handler)
    [Anonymous Symbol]                       0x08000a90   Section        0  lto-llvm-434951.o(.text.Error_Handler)
    HAL_DMA_Abort                            0x08000aa1   Thumb Code   216  lto-llvm-434951.o(.text.HAL_DMA_Abort)
    [Anonymous Symbol]                       0x08000aa0   Section        0  lto-llvm-434951.o(.text.HAL_DMA_Abort)
    HAL_DMA_Abort_IT                         0x08000b79   Thumb Code    58  lto-llvm-434951.o(.text.HAL_DMA_Abort_IT)
    [Anonymous Symbol]                       0x08000b78   Section        0  lto-llvm-434951.o(.text.HAL_DMA_Abort_IT)
    HAL_DMA_IRQHandler                       0x08000bb5   Thumb Code   796  lto-llvm-434951.o(.text.HAL_DMA_IRQHandler)
    [Anonymous Symbol]                       0x08000bb4   Section        0  lto-llvm-434951.o(.text.HAL_DMA_IRQHandler)
    HAL_DMA_Init                             0x08000ed1   Thumb Code   346  lto-llvm-434951.o(.text.HAL_DMA_Init)
    [Anonymous Symbol]                       0x08000ed0   Section        0  lto-llvm-434951.o(.text.HAL_DMA_Init)
    HAL_DMA_Start_IT                         0x0800102d   Thumb Code   172  lto-llvm-434951.o(.text.HAL_DMA_Start_IT)
    [Anonymous Symbol]                       0x0800102c   Section        0  lto-llvm-434951.o(.text.HAL_DMA_Start_IT)
    HAL_GPIO_Init                            0x080010d9   Thumb Code   852  lto-llvm-434951.o(.text.HAL_GPIO_Init)
    [Anonymous Symbol]                       0x080010d8   Section        0  lto-llvm-434951.o(.text.HAL_GPIO_Init)
    HAL_GPIO_ReadPin                         0x0800142d   Thumb Code    48  lto-llvm-434951.o(.text.HAL_GPIO_ReadPin)
    [Anonymous Symbol]                       0x0800142c   Section        0  lto-llvm-434951.o(.text.HAL_GPIO_ReadPin)
    HAL_GPIO_WritePin                        0x0800145d   Thumb Code    42  lto-llvm-434951.o(.text.HAL_GPIO_WritePin)
    [Anonymous Symbol]                       0x0800145c   Section        0  lto-llvm-434951.o(.text.HAL_GPIO_WritePin)
    HAL_GetTick                              0x08001489   Thumb Code    12  lto-llvm-434951.o(.text.HAL_GetTick)
    [Anonymous Symbol]                       0x08001488   Section        0  lto-llvm-434951.o(.text.HAL_GetTick)
    HAL_I2C_Init                             0x08001495   Thumb Code   616  lto-llvm-434951.o(.text.HAL_I2C_Init)
    [Anonymous Symbol]                       0x08001494   Section        0  lto-llvm-434951.o(.text.HAL_I2C_Init)
    HAL_I2C_MspInit                          0x080016fd   Thumb Code   144  lto-llvm-434951.o(.text.HAL_I2C_MspInit)
    [Anonymous Symbol]                       0x080016fc   Section        0  lto-llvm-434951.o(.text.HAL_I2C_MspInit)
    HAL_IncTick                              0x0800178d   Thumb Code    16  lto-llvm-434951.o(.text.HAL_IncTick)
    [Anonymous Symbol]                       0x0800178c   Section        0  lto-llvm-434951.o(.text.HAL_IncTick)
    HAL_Init                                 0x0800179d   Thumb Code    50  lto-llvm-434951.o(.text.HAL_Init)
    [Anonymous Symbol]                       0x0800179c   Section        0  lto-llvm-434951.o(.text.HAL_Init)
    HAL_InitTick                             0x080017d1   Thumb Code   156  lto-llvm-434951.o(.text.HAL_InitTick)
    [Anonymous Symbol]                       0x080017d0   Section        0  lto-llvm-434951.o(.text.HAL_InitTick)
    HAL_MspInit                              0x0800186d   Thumb Code    74  lto-llvm-434951.o(.text.HAL_MspInit)
    [Anonymous Symbol]                       0x0800186c   Section        0  lto-llvm-434951.o(.text.HAL_MspInit)
    HAL_NVIC_EnableIRQ                       0x080018b9   Thumb Code    16  lto-llvm-434951.o(.text.HAL_NVIC_EnableIRQ)
    [Anonymous Symbol]                       0x080018b8   Section        0  lto-llvm-434951.o(.text.HAL_NVIC_EnableIRQ)
    HAL_NVIC_SetPriority                     0x080018c9   Thumb Code    44  lto-llvm-434951.o(.text.HAL_NVIC_SetPriority)
    [Anonymous Symbol]                       0x080018c8   Section        0  lto-llvm-434951.o(.text.HAL_NVIC_SetPriority)
    HAL_NVIC_SetPriorityGrouping             0x080018f5   Thumb Code    18  lto-llvm-434951.o(.text.HAL_NVIC_SetPriorityGrouping)
    [Anonymous Symbol]                       0x080018f4   Section        0  lto-llvm-434951.o(.text.HAL_NVIC_SetPriorityGrouping)
    HAL_RCC_ClockConfig                      0x08001909   Thumb Code   586  lto-llvm-434951.o(.text.HAL_RCC_ClockConfig)
    [Anonymous Symbol]                       0x08001908   Section        0  lto-llvm-434951.o(.text.HAL_RCC_ClockConfig)
    HAL_RCC_GetClockConfig                   0x08001b55   Thumb Code    84  lto-llvm-434951.o(.text.HAL_RCC_GetClockConfig)
    [Anonymous Symbol]                       0x08001b54   Section        0  lto-llvm-434951.o(.text.HAL_RCC_GetClockConfig)
    HAL_RCC_GetHCLKFreq                      0x08001ba9   Thumb Code    12  lto-llvm-434951.o(.text.HAL_RCC_GetHCLKFreq)
    [Anonymous Symbol]                       0x08001ba8   Section        0  lto-llvm-434951.o(.text.HAL_RCC_GetHCLKFreq)
    HAL_RCC_GetPCLK1Freq                     0x08001bb5   Thumb Code    34  lto-llvm-434951.o(.text.HAL_RCC_GetPCLK1Freq)
    [Anonymous Symbol]                       0x08001bb4   Section        0  lto-llvm-434951.o(.text.HAL_RCC_GetPCLK1Freq)
    HAL_RCC_GetPCLK2Freq                     0x08001bd9   Thumb Code    34  lto-llvm-434951.o(.text.HAL_RCC_GetPCLK2Freq)
    [Anonymous Symbol]                       0x08001bd8   Section        0  lto-llvm-434951.o(.text.HAL_RCC_GetPCLK2Freq)
    HAL_RCC_GetSysClockFreq                  0x08001bfd   Thumb Code   222  lto-llvm-434951.o(.text.HAL_RCC_GetSysClockFreq)
    [Anonymous Symbol]                       0x08001bfc   Section        0  lto-llvm-434951.o(.text.HAL_RCC_GetSysClockFreq)
    HAL_RCC_OscConfig                        0x08001cdd   Thumb Code  1682  lto-llvm-434951.o(.text.HAL_RCC_OscConfig)
    [Anonymous Symbol]                       0x08001cdc   Section        0  lto-llvm-434951.o(.text.HAL_RCC_OscConfig)
    HAL_SPI_ErrorCallback                    0x08002371   Thumb Code     8  lto-llvm-434951.o(.text.HAL_SPI_ErrorCallback)
    [Anonymous Symbol]                       0x08002370   Section        0  lto-llvm-434951.o(.text.HAL_SPI_ErrorCallback)
    HAL_SPI_IRQHandler                       0x08002379   Thumb Code   556  lto-llvm-434951.o(.text.HAL_SPI_IRQHandler)
    [Anonymous Symbol]                       0x08002378   Section        0  lto-llvm-434951.o(.text.HAL_SPI_IRQHandler)
    HAL_SPI_Init                             0x080025a5   Thumb Code   250  lto-llvm-434951.o(.text.HAL_SPI_Init)
    [Anonymous Symbol]                       0x080025a4   Section        0  lto-llvm-434951.o(.text.HAL_SPI_Init)
    HAL_SPI_MspInit                          0x080026a1   Thumb Code   330  lto-llvm-434951.o(.text.HAL_SPI_MspInit)
    [Anonymous Symbol]                       0x080026a0   Section        0  lto-llvm-434951.o(.text.HAL_SPI_MspInit)
    HAL_SPI_Receive                          0x080027ed   Thumb Code   524  lto-llvm-434951.o(.text.HAL_SPI_Receive)
    [Anonymous Symbol]                       0x080027ec   Section        0  lto-llvm-434951.o(.text.HAL_SPI_Receive)
    HAL_SPI_Transmit                         0x080029f9   Thumb Code   616  lto-llvm-434951.o(.text.HAL_SPI_Transmit)
    [Anonymous Symbol]                       0x080029f8   Section        0  lto-llvm-434951.o(.text.HAL_SPI_Transmit)
    HAL_SPI_TransmitReceive                  0x08002c61   Thumb Code   818  lto-llvm-434951.o(.text.HAL_SPI_TransmitReceive)
    [Anonymous Symbol]                       0x08002c60   Section        0  lto-llvm-434951.o(.text.HAL_SPI_TransmitReceive)
    HAL_SYSTICK_Config                       0x08002f95   Thumb Code    16  lto-llvm-434951.o(.text.HAL_SYSTICK_Config)
    [Anonymous Symbol]                       0x08002f94   Section        0  lto-llvm-434951.o(.text.HAL_SYSTICK_Config)
    HAL_TIMEx_BreakCallback                  0x08002fa5   Thumb Code     8  lto-llvm-434951.o(.text.HAL_TIMEx_BreakCallback)
    [Anonymous Symbol]                       0x08002fa4   Section        0  lto-llvm-434951.o(.text.HAL_TIMEx_BreakCallback)
    HAL_TIMEx_CommutCallback                 0x08002fad   Thumb Code     8  lto-llvm-434951.o(.text.HAL_TIMEx_CommutCallback)
    [Anonymous Symbol]                       0x08002fac   Section        0  lto-llvm-434951.o(.text.HAL_TIMEx_CommutCallback)
    HAL_TIM_Base_Init                        0x08002fb5   Thumb Code   132  lto-llvm-434951.o(.text.HAL_TIM_Base_Init)
    [Anonymous Symbol]                       0x08002fb4   Section        0  lto-llvm-434951.o(.text.HAL_TIM_Base_Init)
    HAL_TIM_Base_MspInit                     0x08003039   Thumb Code     8  lto-llvm-434951.o(.text.HAL_TIM_Base_MspInit)
    [Anonymous Symbol]                       0x08003038   Section        0  lto-llvm-434951.o(.text.HAL_TIM_Base_MspInit)
    HAL_TIM_Base_Start_IT                    0x08003041   Thumb Code   208  lto-llvm-434951.o(.text.HAL_TIM_Base_Start_IT)
    [Anonymous Symbol]                       0x08003040   Section        0  lto-llvm-434951.o(.text.HAL_TIM_Base_Start_IT)
    HAL_TIM_IC_CaptureCallback               0x08003111   Thumb Code     8  lto-llvm-434951.o(.text.HAL_TIM_IC_CaptureCallback)
    [Anonymous Symbol]                       0x08003110   Section        0  lto-llvm-434951.o(.text.HAL_TIM_IC_CaptureCallback)
    HAL_TIM_IRQHandler                       0x08003119   Thumb Code   634  lto-llvm-434951.o(.text.HAL_TIM_IRQHandler)
    [Anonymous Symbol]                       0x08003118   Section        0  lto-llvm-434951.o(.text.HAL_TIM_IRQHandler)
    HAL_TIM_OC_DelayElapsedCallback          0x08003395   Thumb Code     8  lto-llvm-434951.o(.text.HAL_TIM_OC_DelayElapsedCallback)
    [Anonymous Symbol]                       0x08003394   Section        0  lto-llvm-434951.o(.text.HAL_TIM_OC_DelayElapsedCallback)
    HAL_TIM_PWM_PulseFinishedCallback        0x0800339d   Thumb Code     8  lto-llvm-434951.o(.text.HAL_TIM_PWM_PulseFinishedCallback)
    [Anonymous Symbol]                       0x0800339c   Section        0  lto-llvm-434951.o(.text.HAL_TIM_PWM_PulseFinishedCallback)
    HAL_TIM_PeriodElapsedCallback            0x080033a5   Thumb Code    32  lto-llvm-434951.o(.text.HAL_TIM_PeriodElapsedCallback)
    [Anonymous Symbol]                       0x080033a4   Section        0  lto-llvm-434951.o(.text.HAL_TIM_PeriodElapsedCallback)
    HAL_TIM_TriggerCallback                  0x080033c5   Thumb Code     8  lto-llvm-434951.o(.text.HAL_TIM_TriggerCallback)
    [Anonymous Symbol]                       0x080033c4   Section        0  lto-llvm-434951.o(.text.HAL_TIM_TriggerCallback)
    HAL_UARTEx_ReceiveToIdle_DMA             0x080033cd   Thumb Code   210  lto-llvm-434951.o(.text.HAL_UARTEx_ReceiveToIdle_DMA)
    [Anonymous Symbol]                       0x080033cc   Section        0  lto-llvm-434951.o(.text.HAL_UARTEx_ReceiveToIdle_DMA)
    HAL_UARTEx_RxEventCallback               0x080034a1   Thumb Code    82  lto-llvm-434951.o(.text.HAL_UARTEx_RxEventCallback)
    [Anonymous Symbol]                       0x080034a0   Section        0  lto-llvm-434951.o(.text.HAL_UARTEx_RxEventCallback)
    HAL_UART_ErrorCallback                   0x080034f5   Thumb Code     8  lto-llvm-434951.o(.text.HAL_UART_ErrorCallback)
    [Anonymous Symbol]                       0x080034f4   Section        0  lto-llvm-434951.o(.text.HAL_UART_ErrorCallback)
    HAL_UART_IRQHandler                      0x080034fd   Thumb Code  1050  lto-llvm-434951.o(.text.HAL_UART_IRQHandler)
    [Anonymous Symbol]                       0x080034fc   Section        0  lto-llvm-434951.o(.text.HAL_UART_IRQHandler)
    HAL_UART_Init                            0x08003919   Thumb Code   138  lto-llvm-434951.o(.text.HAL_UART_Init)
    [Anonymous Symbol]                       0x08003918   Section        0  lto-llvm-434951.o(.text.HAL_UART_Init)
    HAL_UART_MspInit                         0x080039a5   Thumb Code   622  lto-llvm-434951.o(.text.HAL_UART_MspInit)
    [Anonymous Symbol]                       0x080039a4   Section        0  lto-llvm-434951.o(.text.HAL_UART_MspInit)
    HAL_UART_RxCpltCallback                  0x08003c15   Thumb Code     8  lto-llvm-434951.o(.text.HAL_UART_RxCpltCallback)
    [Anonymous Symbol]                       0x08003c14   Section        0  lto-llvm-434951.o(.text.HAL_UART_RxCpltCallback)
    HAL_UART_RxHalfCpltCallback              0x08003c1d   Thumb Code     8  lto-llvm-434951.o(.text.HAL_UART_RxHalfCpltCallback)
    [Anonymous Symbol]                       0x08003c1c   Section        0  lto-llvm-434951.o(.text.HAL_UART_RxHalfCpltCallback)
    HAL_UART_Transmit                        0x08003c25   Thumb Code   304  lto-llvm-434951.o(.text.HAL_UART_Transmit)
    [Anonymous Symbol]                       0x08003c24   Section        0  lto-llvm-434951.o(.text.HAL_UART_Transmit)
    HAL_UART_Transmit_DMA                    0x08003d55   Thumb Code   252  lto-llvm-434951.o(.text.HAL_UART_Transmit_DMA)
    [Anonymous Symbol]                       0x08003d54   Section        0  lto-llvm-434951.o(.text.HAL_UART_Transmit_DMA)
    HAL_UART_TxCpltCallback                  0x08003e51   Thumb Code     8  lto-llvm-434951.o(.text.HAL_UART_TxCpltCallback)
    [Anonymous Symbol]                       0x08003e50   Section        0  lto-llvm-434951.o(.text.HAL_UART_TxCpltCallback)
    HAL_UART_TxHalfCpltCallback              0x08003e59   Thumb Code     8  lto-llvm-434951.o(.text.HAL_UART_TxHalfCpltCallback)
    [Anonymous Symbol]                       0x08003e58   Section        0  lto-llvm-434951.o(.text.HAL_UART_TxHalfCpltCallback)
    MX_DMA_Init                              0x08003e61   Thumb Code   160  lto-llvm-434951.o(.text.MX_DMA_Init)
    [Anonymous Symbol]                       0x08003e60   Section        0  lto-llvm-434951.o(.text.MX_DMA_Init)
    MX_GPIO_Init                             0x08003f01   Thumb Code   220  lto-llvm-434951.o(.text.MX_GPIO_Init)
    [Anonymous Symbol]                       0x08003f00   Section        0  lto-llvm-434951.o(.text.MX_GPIO_Init)
    MX_I2C1_Init                             0x08003fdd   Thumb Code    64  lto-llvm-434951.o(.text.MX_I2C1_Init)
    [Anonymous Symbol]                       0x08003fdc   Section        0  lto-llvm-434951.o(.text.MX_I2C1_Init)
    MX_SPI1_Init                             0x0800401d   Thumb Code    76  lto-llvm-434951.o(.text.MX_SPI1_Init)
    [Anonymous Symbol]                       0x0800401c   Section        0  lto-llvm-434951.o(.text.MX_SPI1_Init)
    MX_USART1_UART_Init                      0x08004069   Thumb Code    56  lto-llvm-434951.o(.text.MX_USART1_UART_Init)
    [Anonymous Symbol]                       0x08004068   Section        0  lto-llvm-434951.o(.text.MX_USART1_UART_Init)
    MX_USART2_UART_Init                      0x080040a1   Thumb Code    56  lto-llvm-434951.o(.text.MX_USART2_UART_Init)
    [Anonymous Symbol]                       0x080040a0   Section        0  lto-llvm-434951.o(.text.MX_USART2_UART_Init)
    [Anonymous Symbol]                       0x080040d8   Section        0  lto-llvm-434951.o(.text.MemManage_Handler)
    [Anonymous Symbol]                       0x080040dc   Section        0  lto-llvm-434951.o(.text.NMI_Handler)
    NVIC_EncodePriority                      0x080040e1   Thumb Code    98  lto-llvm-434951.o(.text.NVIC_EncodePriority)
    [Anonymous Symbol]                       0x080040e0   Section        0  lto-llvm-434951.o(.text.NVIC_EncodePriority)
    [Anonymous Symbol]                       0x08004144   Section        0  lto-llvm-434951.o(.text.SPI1_IRQHandler)
    SPI_DMAAbortOnError                      0x08004155   Thumb Code    32  lto-llvm-434951.o(.text.SPI_DMAAbortOnError)
    [Anonymous Symbol]                       0x08004154   Section        0  lto-llvm-434951.o(.text.SPI_DMAAbortOnError)
    SPI_EndRxTransaction                     0x08004175   Thumb Code   200  lto-llvm-434951.o(.text.SPI_EndRxTransaction)
    [Anonymous Symbol]                       0x08004174   Section        0  lto-llvm-434951.o(.text.SPI_EndRxTransaction)
    SPI_EndRxTxTransaction                   0x0800423d   Thumb Code   154  lto-llvm-434951.o(.text.SPI_EndRxTxTransaction)
    [Anonymous Symbol]                       0x0800423c   Section        0  lto-llvm-434951.o(.text.SPI_EndRxTxTransaction)
    SPI_WaitFlagStateUntilTimeout            0x080042d9   Thumb Code   278  lto-llvm-434951.o(.text.SPI_WaitFlagStateUntilTimeout)
    [Anonymous Symbol]                       0x080042d8   Section        0  lto-llvm-434951.o(.text.SPI_WaitFlagStateUntilTimeout)
    SysTick_Config                           0x080043f1   Thumb Code    80  lto-llvm-434951.o(.text.SysTick_Config)
    [Anonymous Symbol]                       0x080043f0   Section        0  lto-llvm-434951.o(.text.SysTick_Config)
    [Anonymous Symbol]                       0x08004440   Section        0  lto-llvm-434951.o(.text.SysTick_Handler)
    SystemClock_Config                       0x08004451   Thumb Code   180  lto-llvm-434951.o(.text.SystemClock_Config)
    [Anonymous Symbol]                       0x08004450   Section        0  lto-llvm-434951.o(.text.SystemClock_Config)
    SystemCoreClockUpdate                    0x08004505   Thumb Code   298  lto-llvm-434951.o(.text.SystemCoreClockUpdate)
    [Anonymous Symbol]                       0x08004504   Section        0  lto-llvm-434951.o(.text.SystemCoreClockUpdate)
    [Anonymous Symbol]                       0x08004630   Section        0  lto-llvm-434951.o(.text.SystemInit)
    [Anonymous Symbol]                       0x08004644   Section        0  lto-llvm-434951.o(.text.TIM1_UP_TIM10_IRQHandler)
    TIM_Base_SetConfig                       0x08004655   Thumb Code   314  lto-llvm-434951.o(.text.TIM_Base_SetConfig)
    [Anonymous Symbol]                       0x08004654   Section        0  lto-llvm-434951.o(.text.TIM_Base_SetConfig)
    UART_DMAAbortOnError                     0x08004791   Thumb Code    32  lto-llvm-434951.o(.text.UART_DMAAbortOnError)
    [Anonymous Symbol]                       0x08004790   Section        0  lto-llvm-434951.o(.text.UART_DMAAbortOnError)
    UART_DMAError                            0x080047b1   Thumb Code   120  lto-llvm-434951.o(.text.UART_DMAError)
    [Anonymous Symbol]                       0x080047b0   Section        0  lto-llvm-434951.o(.text.UART_DMAError)
    UART_DMAReceiveCplt                      0x08004829   Thumb Code   236  lto-llvm-434951.o(.text.UART_DMAReceiveCplt)
    [Anonymous Symbol]                       0x08004828   Section        0  lto-llvm-434951.o(.text.UART_DMAReceiveCplt)
    UART_DMARxHalfCplt                       0x08004915   Thumb Code    46  lto-llvm-434951.o(.text.UART_DMARxHalfCplt)
    [Anonymous Symbol]                       0x08004914   Section        0  lto-llvm-434951.o(.text.UART_DMARxHalfCplt)
    UART_DMATransmitCplt                     0x08004945   Thumb Code   122  lto-llvm-434951.o(.text.UART_DMATransmitCplt)
    [Anonymous Symbol]                       0x08004944   Section        0  lto-llvm-434951.o(.text.UART_DMATransmitCplt)
    UART_DMATxHalfCplt                       0x080049c1   Thumb Code    22  lto-llvm-434951.o(.text.UART_DMATxHalfCplt)
    [Anonymous Symbol]                       0x080049c0   Section        0  lto-llvm-434951.o(.text.UART_DMATxHalfCplt)
    UART_EndRxTransfer                       0x080049d9   Thumb Code   146  lto-llvm-434951.o(.text.UART_EndRxTransfer)
    [Anonymous Symbol]                       0x080049d8   Section        0  lto-llvm-434951.o(.text.UART_EndRxTransfer)
    UART_EndTransmit_IT                      0x08004a6d   Thumb Code    34  lto-llvm-434951.o(.text.UART_EndTransmit_IT)
    [Anonymous Symbol]                       0x08004a6c   Section        0  lto-llvm-434951.o(.text.UART_EndTransmit_IT)
    UART_EndTxTransfer                       0x08004a91   Thumb Code    52  lto-llvm-434951.o(.text.UART_EndTxTransfer)
    [Anonymous Symbol]                       0x08004a90   Section        0  lto-llvm-434951.o(.text.UART_EndTxTransfer)
    UART_Receive_IT                          0x08004ac5   Thumb Code   342  lto-llvm-434951.o(.text.UART_Receive_IT)
    [Anonymous Symbol]                       0x08004ac4   Section        0  lto-llvm-434951.o(.text.UART_Receive_IT)
    UART_SetConfig                           0x08004c1d   Thumb Code   300  lto-llvm-434951.o(.text.UART_SetConfig)
    [Anonymous Symbol]                       0x08004c1c   Section        0  lto-llvm-434951.o(.text.UART_SetConfig)
    UART_Start_Receive_DMA                   0x08004d49   Thumb Code   264  lto-llvm-434951.o(.text.UART_Start_Receive_DMA)
    [Anonymous Symbol]                       0x08004d48   Section        0  lto-llvm-434951.o(.text.UART_Start_Receive_DMA)
    UART_Transmit_IT                         0x08004e51   Thumb Code   138  lto-llvm-434951.o(.text.UART_Transmit_IT)
    [Anonymous Symbol]                       0x08004e50   Section        0  lto-llvm-434951.o(.text.UART_Transmit_IT)
    UART_WaitOnFlagUntilTimeout              0x08004edd   Thumb Code   194  lto-llvm-434951.o(.text.UART_WaitOnFlagUntilTimeout)
    [Anonymous Symbol]                       0x08004edc   Section        0  lto-llvm-434951.o(.text.UART_WaitOnFlagUntilTimeout)
    [Anonymous Symbol]                       0x08004fa0   Section        0  lto-llvm-434951.o(.text.USART1_IRQHandler)
    [Anonymous Symbol]                       0x08004ff8   Section        0  lto-llvm-434951.o(.text.UsageFault_Handler)
    __NVIC_EnableIRQ                         0x08004ffd   Thumb Code    44  lto-llvm-434951.o(.text.__NVIC_EnableIRQ)
    [Anonymous Symbol]                       0x08004ffc   Section        0  lto-llvm-434951.o(.text.__NVIC_EnableIRQ)
    __NVIC_GetPriorityGrouping               0x08005029   Thumb Code    16  lto-llvm-434951.o(.text.__NVIC_GetPriorityGrouping)
    [Anonymous Symbol]                       0x08005028   Section        0  lto-llvm-434951.o(.text.__NVIC_GetPriorityGrouping)
    __NVIC_SetPriority                       0x08005039   Thumb Code    58  lto-llvm-434951.o(.text.__NVIC_SetPriority)
    [Anonymous Symbol]                       0x08005038   Section        0  lto-llvm-434951.o(.text.__NVIC_SetPriority)
    __NVIC_SetPriorityGrouping               0x08005075   Thumb Code    60  lto-llvm-434951.o(.text.__NVIC_SetPriorityGrouping)
    [Anonymous Symbol]                       0x08005074   Section        0  lto-llvm-434951.o(.text.__NVIC_SetPriorityGrouping)
    __perf_counter_init                      0x080050b1   Thumb Code     8  lto-llvm-434951.o(.text.__perf_counter_init)
    [Anonymous Symbol]                       0x080050b0   Section        0  lto-llvm-434951.o(.text.__perf_counter_init)
    __rt_ffs                                 0x080050b9   Thumb Code   126  lto-llvm-434951.o(.text.__rt_ffs)
    [Anonymous Symbol]                       0x080050b8   Section        0  lto-llvm-434951.o(.text.__rt_ffs)
    _has_defunct_thread                      0x08005139   Thumb Code    28  lto-llvm-434951.o(.text._has_defunct_thread)
    [Anonymous Symbol]                       0x08005138   Section        0  lto-llvm-434951.o(.text._has_defunct_thread)
    _msh_exec_cmd                            0x08005155   Thumb Code   242  lto-llvm-434951.o(.text._msh_exec_cmd)
    [Anonymous Symbol]                       0x08005154   Section        0  lto-llvm-434951.o(.text._msh_exec_cmd)
    _rt_scheduler_stack_check                0x08005249   Thumb Code   148  lto-llvm-434951.o(.text._rt_scheduler_stack_check)
    [Anonymous Symbol]                       0x08005248   Section        0  lto-llvm-434951.o(.text._rt_scheduler_stack_check)
    _rt_thread_init                          0x080052dd   Thumb Code   214  lto-llvm-434951.o(.text._rt_thread_init)
    [Anonymous Symbol]                       0x080052dc   Section        0  lto-llvm-434951.o(.text._rt_thread_init)
    _rt_timer_init                           0x080053b5   Thumb Code   102  lto-llvm-434951.o(.text._rt_timer_init)
    [Anonymous Symbol]                       0x080053b4   Section        0  lto-llvm-434951.o(.text._rt_timer_init)
    _rt_timer_remove                         0x0800541d   Thumb Code    48  lto-llvm-434951.o(.text._rt_timer_remove)
    [Anonymous Symbol]                       0x0800541c   Section        0  lto-llvm-434951.o(.text._rt_timer_remove)
    _thread_cleanup_execute                  0x0800544d   Thumb Code    42  lto-llvm-434951.o(.text._thread_cleanup_execute)
    [Anonymous Symbol]                       0x0800544c   Section        0  lto-llvm-434951.o(.text._thread_cleanup_execute)
    app_main_control_init                    0x08005479   Thumb Code    92  lto-llvm-434951.o(.text.app_main_control_init)
    [Anonymous Symbol]                       0x08005478   Section        0  lto-llvm-434951.o(.text.app_main_control_init)
    app_main_control_main                    0x080054d5   Thumb Code   246  lto-llvm-434951.o(.text.app_main_control_main)
    [Anonymous Symbol]                       0x080054d4   Section        0  lto-llvm-434951.o(.text.app_main_control_main)
    bus_fault_track                          0x080055cd   Thumb Code   244  lto-llvm-434951.o(.text.bus_fault_track)
    [Anonymous Symbol]                       0x080055cc   Section        0  lto-llvm-434951.o(.text.bus_fault_track)
    cmd_free                                 0x080056c1   Thumb Code    18  lto-llvm-434951.o(.text.cmd_free)
    [Anonymous Symbol]                       0x080056c0   Section        0  lto-llvm-434951.o(.text.cmd_free)
    cmd_ps                                   0x080056d5   Thumb Code    18  lto-llvm-434951.o(.text.cmd_ps)
    [Anonymous Symbol]                       0x080056d4   Section        0  lto-llvm-434951.o(.text.cmd_ps)
    delay_us                                 0x080056e9   Thumb Code    60  lto-llvm-434951.o(.text.delay_us)
    [Anonymous Symbol]                       0x080056e8   Section        0  lto-llvm-434951.o(.text.delay_us)
    dev_ad7490_decode_data                   0x08005725   Thumb Code    76  lto-llvm-434951.o(.text.dev_ad7490_decode_data)
    [Anonymous Symbol]                       0x08005724   Section        0  lto-llvm-434951.o(.text.dev_ad7490_decode_data)
    dev_ad7490_fetch_data                    0x08005771   Thumb Code   158  lto-llvm-434951.o(.text.dev_ad7490_fetch_data)
    [Anonymous Symbol]                       0x08005770   Section        0  lto-llvm-434951.o(.text.dev_ad7490_fetch_data)
    dev_ad7490_fetch_data_in_continuous_mode 0x08005811   Thumb Code   188  lto-llvm-434951.o(.text.dev_ad7490_fetch_data_in_continuous_mode)
    [Anonymous Symbol]                       0x08005810   Section        0  lto-llvm-434951.o(.text.dev_ad7490_fetch_data_in_continuous_mode)
    dev_ad7490_fetch_data_in_independent_mode 0x080058cd   Thumb Code   160  lto-llvm-434951.o(.text.dev_ad7490_fetch_data_in_independent_mode)
    [Anonymous Symbol]                       0x080058cc   Section        0  lto-llvm-434951.o(.text.dev_ad7490_fetch_data_in_independent_mode)
    dev_ad7490_fetch_data_in_regular_scan_mode 0x0800596d   Thumb Code   190  lto-llvm-434951.o(.text.dev_ad7490_fetch_data_in_regular_scan_mode)
    [Anonymous Symbol]                       0x0800596c   Section        0  lto-llvm-434951.o(.text.dev_ad7490_fetch_data_in_regular_scan_mode)
    dev_ad7490_generate_control_seq          0x08005a2d   Thumb Code   404  lto-llvm-434951.o(.text.dev_ad7490_generate_control_seq)
    [Anonymous Symbol]                       0x08005a2c   Section        0  lto-llvm-434951.o(.text.dev_ad7490_generate_control_seq)
    dev_ad7490_power_up                      0x08005bc1   Thumb Code   110  lto-llvm-434951.o(.text.dev_ad7490_power_up)
    [Anonymous Symbol]                       0x08005bc0   Section        0  lto-llvm-434951.o(.text.dev_ad7490_power_up)
    divide                                   0x08005c31   Thumb Code    82  lto-llvm-434951.o(.text.divide)
    [Anonymous Symbol]                       0x08005c30   Section        0  lto-llvm-434951.o(.text.divide)
    dma_io_construct                         0x08005c85   Thumb Code   586  lto-llvm-434951.o(.text.dma_io_construct)
    [Anonymous Symbol]                       0x08005c84   Section        0  lto-llvm-434951.o(.text.dma_io_construct)
    dma_io_echo                              0x08005ed1   Thumb Code    48  lto-llvm-434951.o(.text.dma_io_echo)
    [Anonymous Symbol]                       0x08005ed0   Section        0  lto-llvm-434951.o(.text.dma_io_echo)
    dma_io_get_reclength                     0x08005f01   Thumb Code    22  lto-llvm-434951.o(.text.dma_io_get_reclength)
    [Anonymous Symbol]                       0x08005f00   Section        0  lto-llvm-434951.o(.text.dma_io_get_reclength)
    dma_io_setRX_IT                          0x08005f19   Thumb Code    36  lto-llvm-434951.o(.text.dma_io_setRX_IT)
    [Anonymous Symbol]                       0x08005f18   Section        0  lto-llvm-434951.o(.text.dma_io_setRX_IT)
    dma_output                               0x08005f3d   Thumb Code    48  lto-llvm-434951.o(.text.dma_output)
    [Anonymous Symbol]                       0x08005f3c   Section        0  lto-llvm-434951.o(.text.dma_output)
    dma_printf                               0x08005f6d   Thumb Code   104  lto-llvm-434951.o(.text.dma_printf)
    [Anonymous Symbol]                       0x08005f6c   Section        0  lto-llvm-434951.o(.text.dma_printf)
    finsh_get_prompt                         0x08005fd5   Thumb Code   102  lto-llvm-434951.o(.text.finsh_get_prompt)
    [Anonymous Symbol]                       0x08005fd4   Section        0  lto-llvm-434951.o(.text.finsh_get_prompt)
    finsh_getchar                            0x0800603d   Thumb Code     8  lto-llvm-434951.o(.text.finsh_getchar)
    [Anonymous Symbol]                       0x0800603c   Section        0  lto-llvm-434951.o(.text.finsh_getchar)
    finsh_set_prompt_mode                    0x08006045   Thumb Code    84  lto-llvm-434951.o(.text.finsh_set_prompt_mode)
    [Anonymous Symbol]                       0x08006044   Section        0  lto-llvm-434951.o(.text.finsh_set_prompt_mode)
    finsh_system_function_init               0x08006099   Thumb Code    50  lto-llvm-434951.o(.text.finsh_system_function_init)
    [Anonymous Symbol]                       0x08006098   Section        0  lto-llvm-434951.o(.text.finsh_system_function_init)
    finsh_system_init                        0x080060cd   Thumb Code   150  lto-llvm-434951.o(.text.finsh_system_init)
    [Anonymous Symbol]                       0x080060cc   Section        0  lto-llvm-434951.o(.text.finsh_system_init)
    finsh_thread_entry                       0x08006165   Thumb Code  1174  lto-llvm-434951.o(.text.finsh_thread_entry)
    [Anonymous Symbol]                       0x08006164   Section        0  lto-llvm-434951.o(.text.finsh_thread_entry)
    hard_fault_track                         0x080065fd   Thumb Code   146  lto-llvm-434951.o(.text.hard_fault_track)
    [Anonymous Symbol]                       0x080065fc   Section        0  lto-llvm-434951.o(.text.hard_fault_track)
    hello                                    0x08006691   Thumb Code    18  lto-llvm-434951.o(.text.hello)
    [Anonymous Symbol]                       0x08006690   Section        0  lto-llvm-434951.o(.text.hello)
    hw_init                                  0x080066a5   Thumb Code   102  lto-llvm-434951.o(.text.hw_init)
    [Anonymous Symbol]                       0x080066a4   Section        0  lto-llvm-434951.o(.text.hw_init)
    init_cycle_counter                       0x0800670d   Thumb Code   198  lto-llvm-434951.o(.text.init_cycle_counter)
    [Anonymous Symbol]                       0x0800670c   Section        0  lto-llvm-434951.o(.text.init_cycle_counter)
    list                                     0x080067d5   Thumb Code   106  lto-llvm-434951.o(.text.list)
    [Anonymous Symbol]                       0x080067d4   Section        0  lto-llvm-434951.o(.text.list)
    list_event                               0x08006841   Thumb Code   268  lto-llvm-434951.o(.text.list_event)
    [Anonymous Symbol]                       0x08006840   Section        0  lto-llvm-434951.o(.text.list_event)
    list_find_init                           0x0800694d   Thumb Code    68  lto-llvm-434951.o(.text.list_find_init)
    [Anonymous Symbol]                       0x0800694c   Section        0  lto-llvm-434951.o(.text.list_find_init)
    list_get_next                            0x08006991   Thumb Code   206  lto-llvm-434951.o(.text.list_get_next)
    [Anonymous Symbol]                       0x08006990   Section        0  lto-llvm-434951.o(.text.list_get_next)
    list_mailbox                             0x08006a61   Thumb Code   290  lto-llvm-434951.o(.text.list_mailbox)
    [Anonymous Symbol]                       0x08006a60   Section        0  lto-llvm-434951.o(.text.list_mailbox)
    list_mem                                 0x08006b85   Thumb Code    70  lto-llvm-434951.o(.text.list_mem)
    [Anonymous Symbol]                       0x08006b84   Section        0  lto-llvm-434951.o(.text.list_mem)
    list_mempool                             0x08006bcd   Thumb Code   332  lto-llvm-434951.o(.text.list_mempool)
    [Anonymous Symbol]                       0x08006bcc   Section        0  lto-llvm-434951.o(.text.list_mempool)
    list_mutex                               0x08006d19   Thumb Code   220  lto-llvm-434951.o(.text.list_mutex)
    [Anonymous Symbol]                       0x08006d18   Section        0  lto-llvm-434951.o(.text.list_mutex)
    list_sem                                 0x08006df5   Thumb Code   282  lto-llvm-434951.o(.text.list_sem)
    [Anonymous Symbol]                       0x08006df4   Section        0  lto-llvm-434951.o(.text.list_sem)
    list_thread                              0x08006f11   Thumb Code   438  lto-llvm-434951.o(.text.list_thread)
    [Anonymous Symbol]                       0x08006f10   Section        0  lto-llvm-434951.o(.text.list_thread)
    list_timer                               0x080070c9   Thumb Code   256  lto-llvm-434951.o(.text.list_timer)
    [Anonymous Symbol]                       0x080070c8   Section        0  lto-llvm-434951.o(.text.list_timer)
    [Anonymous Symbol]                       0x080071c8   Section        0  lto-llvm-434951.o(.text.main)
    main_thread_entry                        0x080071d9   Thumb Code    18  lto-llvm-434951.o(.text.main_thread_entry)
    [Anonymous Symbol]                       0x080071d8   Section        0  lto-llvm-434951.o(.text.main_thread_entry)
    mem_manage_fault_track                   0x080071ed   Thumb Code   212  lto-llvm-434951.o(.text.mem_manage_fault_track)
    [Anonymous Symbol]                       0x080071ec   Section        0  lto-llvm-434951.o(.text.mem_manage_fault_track)
    msh_auto_complete                        0x080072c1   Thumb Code   214  lto-llvm-434951.o(.text.msh_auto_complete)
    [Anonymous Symbol]                       0x080072c0   Section        0  lto-llvm-434951.o(.text.msh_auto_complete)
    msh_exec                                 0x08007399   Thumb Code   174  lto-llvm-434951.o(.text.msh_exec)
    [Anonymous Symbol]                       0x08007398   Section        0  lto-llvm-434951.o(.text.msh_exec)
    msh_get_cmd                              0x08007449   Thumb Code   126  lto-llvm-434951.o(.text.msh_get_cmd)
    [Anonymous Symbol]                       0x08007448   Section        0  lto-llvm-434951.o(.text.msh_get_cmd)
    msh_help                                 0x080074c9   Thumb Code   124  lto-llvm-434951.o(.text.msh_help)
    [Anonymous Symbol]                       0x080074c8   Section        0  lto-llvm-434951.o(.text.msh_help)
    msh_split                                0x08007545   Thumb Code   444  lto-llvm-434951.o(.text.msh_split)
    [Anonymous Symbol]                       0x08007544   Section        0  lto-llvm-434951.o(.text.msh_split)
    object_split                             0x08007701   Thumb Code    36  lto-llvm-434951.o(.text.object_split)
    [Anonymous Symbol]                       0x08007700   Section        0  lto-llvm-434951.o(.text.object_split)
    plug_holes                               0x08007725   Thumb Code   344  lto-llvm-434951.o(.text.plug_holes)
    [Anonymous Symbol]                       0x08007724   Section        0  lto-llvm-434951.o(.text.plug_holes)
    print_number                             0x0800787d   Thumb Code   600  lto-llvm-434951.o(.text.print_number)
    [Anonymous Symbol]                       0x0800787c   Section        0  lto-llvm-434951.o(.text.print_number)
    release_muscle                           0x08007ad5   Thumb Code    18  lto-llvm-434951.o(.text.release_muscle)
    [Anonymous Symbol]                       0x08007ad4   Section        0  lto-llvm-434951.o(.text.release_muscle)
    rt_application_init                      0x08007ae9   Thumb Code    80  lto-llvm-434951.o(.text.rt_application_init)
    [Anonymous Symbol]                       0x08007ae8   Section        0  lto-llvm-434951.o(.text.rt_application_init)
    rt_assert_handler                        0x08007b39   Thumb Code    54  lto-llvm-434951.o(.text.rt_assert_handler)
    [Anonymous Symbol]                       0x08007b38   Section        0  lto-llvm-434951.o(.text.rt_assert_handler)
    rt_calloc                                0x08007b71   Thumb Code    52  lto-llvm-434951.o(.text.rt_calloc)
    [Anonymous Symbol]                       0x08007b70   Section        0  lto-llvm-434951.o(.text.rt_calloc)
    rt_components_board_init                 0x08007ba5   Thumb Code    84  lto-llvm-434951.o(.text.rt_components_board_init)
    [Anonymous Symbol]                       0x08007ba4   Section        0  lto-llvm-434951.o(.text.rt_components_board_init)
    rt_components_init                       0x08007bf9   Thumb Code    96  lto-llvm-434951.o(.text.rt_components_init)
    [Anonymous Symbol]                       0x08007bf8   Section        0  lto-llvm-434951.o(.text.rt_components_init)
    rt_enter_critical                        0x08007c59   Thumb Code    34  lto-llvm-434951.o(.text.rt_enter_critical)
    [Anonymous Symbol]                       0x08007c58   Section        0  lto-llvm-434951.o(.text.rt_enter_critical)
    rt_event_create                          0x08007c7d   Thumb Code   132  lto-llvm-434951.o(.text.rt_event_create)
    [Anonymous Symbol]                       0x08007c7c   Section        0  lto-llvm-434951.o(.text.rt_event_create)
    rt_event_recv                            0x08007d01   Thumb Code   596  lto-llvm-434951.o(.text.rt_event_recv)
    [Anonymous Symbol]                       0x08007d00   Section        0  lto-llvm-434951.o(.text.rt_event_recv)
    rt_event_send                            0x08007f55   Thumb Code   352  lto-llvm-434951.o(.text.rt_event_send)
    [Anonymous Symbol]                       0x08007f54   Section        0  lto-llvm-434951.o(.text.rt_event_send)
    rt_exit_critical                         0x080080b5   Thumb Code    86  lto-llvm-434951.o(.text.rt_exit_critical)
    [Anonymous Symbol]                       0x080080b4   Section        0  lto-llvm-434951.o(.text.rt_exit_critical)
    rt_free                                  0x0800810d   Thumb Code   474  lto-llvm-434951.o(.text.rt_free)
    [Anonymous Symbol]                       0x0800810c   Section        0  lto-llvm-434951.o(.text.rt_free)
    rt_hw_board_init                         0x080082e9   Thumb Code    54  lto-llvm-434951.o(.text.rt_hw_board_init)
    [Anonymous Symbol]                       0x080082e8   Section        0  lto-llvm-434951.o(.text.rt_hw_board_init)
    rt_hw_console_getchar                    0x08008321   Thumb Code    48  lto-llvm-434951.o(.text.rt_hw_console_getchar)
    [Anonymous Symbol]                       0x08008320   Section        0  lto-llvm-434951.o(.text.rt_hw_console_getchar)
    rt_hw_console_output                     0x08008351   Thumb Code   318  lto-llvm-434951.o(.text.rt_hw_console_output)
    [Anonymous Symbol]                       0x08008350   Section        0  lto-llvm-434951.o(.text.rt_hw_console_output)
    [Anonymous Symbol]                       0x08008490   Section        0  lto-llvm-434951.o(.text.rt_hw_hard_fault_exception)
    rt_hw_stack_init                         0x080085f9   Thumb Code   136  lto-llvm-434951.o(.text.rt_hw_stack_init)
    [Anonymous Symbol]                       0x080085f8   Section        0  lto-llvm-434951.o(.text.rt_hw_stack_init)
    rt_interrupt_enter                       0x08008681   Thumb Code    44  lto-llvm-434951.o(.text.rt_interrupt_enter)
    [Anonymous Symbol]                       0x08008680   Section        0  lto-llvm-434951.o(.text.rt_interrupt_enter)
    rt_interrupt_get_nest                    0x080086ad   Thumb Code    38  lto-llvm-434951.o(.text.rt_interrupt_get_nest)
    [Anonymous Symbol]                       0x080086ac   Section        0  lto-llvm-434951.o(.text.rt_interrupt_get_nest)
    rt_interrupt_leave                       0x080086d5   Thumb Code    44  lto-llvm-434951.o(.text.rt_interrupt_leave)
    [Anonymous Symbol]                       0x080086d4   Section        0  lto-llvm-434951.o(.text.rt_interrupt_leave)
    rt_ipc_list_resume                       0x08008701   Thumb Code    28  lto-llvm-434951.o(.text.rt_ipc_list_resume)
    [Anonymous Symbol]                       0x08008700   Section        0  lto-llvm-434951.o(.text.rt_ipc_list_resume)
    rt_ipc_list_suspend                      0x0800871d   Thumb Code   142  lto-llvm-434951.o(.text.rt_ipc_list_suspend)
    [Anonymous Symbol]                       0x0800871c   Section        0  lto-llvm-434951.o(.text.rt_ipc_list_suspend)
    rt_ipc_object_init                       0x080087ad   Thumb Code    18  lto-llvm-434951.o(.text.rt_ipc_object_init)
    [Anonymous Symbol]                       0x080087ac   Section        0  lto-llvm-434951.o(.text.rt_ipc_object_init)
    rt_kprintf                               0x080087c1   Thumb Code    66  lto-llvm-434951.o(.text.rt_kprintf)
    [Anonymous Symbol]                       0x080087c0   Section        0  lto-llvm-434951.o(.text.rt_kprintf)
    rt_list_init                             0x08008805   Thumb Code    16  lto-llvm-434951.o(.text.rt_list_init)
    [Anonymous Symbol]                       0x08008804   Section        0  lto-llvm-434951.o(.text.rt_list_init)
    rt_list_init.280                         0x08008815   Thumb Code    16  lto-llvm-434951.o(.text.rt_list_init.280)
    [Anonymous Symbol]                       0x08008814   Section        0  lto-llvm-434951.o(.text.rt_list_init.280)
    rt_list_init.300                         0x08008825   Thumb Code    16  lto-llvm-434951.o(.text.rt_list_init.300)
    [Anonymous Symbol]                       0x08008824   Section        0  lto-llvm-434951.o(.text.rt_list_init.300)
    rt_list_init.327                         0x08008835   Thumb Code    16  lto-llvm-434951.o(.text.rt_list_init.327)
    [Anonymous Symbol]                       0x08008834   Section        0  lto-llvm-434951.o(.text.rt_list_init.327)
    rt_list_insert_after.260                 0x08008845   Thumb Code    38  lto-llvm-434951.o(.text.rt_list_insert_after.260)
    [Anonymous Symbol]                       0x08008844   Section        0  lto-llvm-434951.o(.text.rt_list_insert_after.260)
    rt_list_insert_after.295                 0x0800886d   Thumb Code    46  lto-llvm-434951.o(.text.rt_list_insert_after.295)
    [Anonymous Symbol]                       0x0800886c   Section        0  lto-llvm-434951.o(.text.rt_list_insert_after.295)
    rt_list_insert_after.337                 0x0800889d   Thumb Code    38  lto-llvm-434951.o(.text.rt_list_insert_after.337)
    [Anonymous Symbol]                       0x0800889c   Section        0  lto-llvm-434951.o(.text.rt_list_insert_after.337)
    rt_list_insert_before                    0x080088c5   Thumb Code    38  lto-llvm-434951.o(.text.rt_list_insert_before)
    [Anonymous Symbol]                       0x080088c4   Section        0  lto-llvm-434951.o(.text.rt_list_insert_before)
    rt_list_insert_before.288                0x080088ed   Thumb Code    38  lto-llvm-434951.o(.text.rt_list_insert_before.288)
    [Anonymous Symbol]                       0x080088ec   Section        0  lto-llvm-434951.o(.text.rt_list_insert_before.288)
    rt_list_insert_before.318                0x08008915   Thumb Code    38  lto-llvm-434951.o(.text.rt_list_insert_before.318)
    [Anonymous Symbol]                       0x08008914   Section        0  lto-llvm-434951.o(.text.rt_list_insert_before.318)
    rt_list_isempty                          0x0800893d   Thumb Code    20  lto-llvm-434951.o(.text.rt_list_isempty)
    [Anonymous Symbol]                       0x0800893c   Section        0  lto-llvm-434951.o(.text.rt_list_isempty)
    rt_list_isempty.164                      0x08008951   Thumb Code    20  lto-llvm-434951.o(.text.rt_list_isempty.164)
    [Anonymous Symbol]                       0x08008950   Section        0  lto-llvm-434951.o(.text.rt_list_isempty.164)
    rt_list_isempty.290                      0x08008965   Thumb Code    20  lto-llvm-434951.o(.text.rt_list_isempty.290)
    [Anonymous Symbol]                       0x08008964   Section        0  lto-llvm-434951.o(.text.rt_list_isempty.290)
    rt_list_isempty.344                      0x08008979   Thumb Code    20  lto-llvm-434951.o(.text.rt_list_isempty.344)
    [Anonymous Symbol]                       0x08008978   Section        0  lto-llvm-434951.o(.text.rt_list_isempty.344)
    rt_list_len                              0x0800898d   Thumb Code    46  lto-llvm-434951.o(.text.rt_list_len)
    [Anonymous Symbol]                       0x0800898c   Section        0  lto-llvm-434951.o(.text.rt_list_len)
    rt_list_remove                           0x080089bd   Thumb Code    32  lto-llvm-434951.o(.text.rt_list_remove)
    [Anonymous Symbol]                       0x080089bc   Section        0  lto-llvm-434951.o(.text.rt_list_remove)
    rt_list_remove.264                       0x080089dd   Thumb Code    32  lto-llvm-434951.o(.text.rt_list_remove.264)
    [Anonymous Symbol]                       0x080089dc   Section        0  lto-llvm-434951.o(.text.rt_list_remove.264)
    rt_list_remove.289                       0x080089fd   Thumb Code    32  lto-llvm-434951.o(.text.rt_list_remove.289)
    [Anonymous Symbol]                       0x080089fc   Section        0  lto-llvm-434951.o(.text.rt_list_remove.289)
    rt_list_remove.304                       0x08008a1d   Thumb Code    32  lto-llvm-434951.o(.text.rt_list_remove.304)
    [Anonymous Symbol]                       0x08008a1c   Section        0  lto-llvm-434951.o(.text.rt_list_remove.304)
    rt_list_remove.332                       0x08008a3d   Thumb Code    32  lto-llvm-434951.o(.text.rt_list_remove.332)
    [Anonymous Symbol]                       0x08008a3c   Section        0  lto-llvm-434951.o(.text.rt_list_remove.332)
    rt_malloc                                0x08008a5d   Thumb Code   918  lto-llvm-434951.o(.text.rt_malloc)
    [Anonymous Symbol]                       0x08008a5c   Section        0  lto-llvm-434951.o(.text.rt_malloc)
    rt_mb_create                             0x08008df5   Thumb Code   200  lto-llvm-434951.o(.text.rt_mb_create)
    [Anonymous Symbol]                       0x08008df4   Section        0  lto-llvm-434951.o(.text.rt_mb_create)
    rt_mb_recv                               0x08008ebd   Thumb Code   568  lto-llvm-434951.o(.text.rt_mb_recv)
    [Anonymous Symbol]                       0x08008ebc   Section        0  lto-llvm-434951.o(.text.rt_mb_recv)
    rt_mb_send                               0x080090f5   Thumb Code    20  lto-llvm-434951.o(.text.rt_mb_send)
    [Anonymous Symbol]                       0x080090f4   Section        0  lto-llvm-434951.o(.text.rt_mb_send)
    rt_mb_send_wait                          0x08009109   Thumb Code   570  lto-llvm-434951.o(.text.rt_mb_send_wait)
    [Anonymous Symbol]                       0x08009108   Section        0  lto-llvm-434951.o(.text.rt_mb_send_wait)
    rt_memmove                               0x08009345   Thumb Code   128  lto-llvm-434951.o(.text.rt_memmove)
    [Anonymous Symbol]                       0x08009344   Section        0  lto-llvm-434951.o(.text.rt_memmove)
    rt_memset                                0x080093c5   Thumb Code   176  lto-llvm-434951.o(.text.rt_memset)
    [Anonymous Symbol]                       0x080093c4   Section        0  lto-llvm-434951.o(.text.rt_memset)
    rt_mutex_create                          0x08009475   Thumb Code   160  lto-llvm-434951.o(.text.rt_mutex_create)
    [Anonymous Symbol]                       0x08009474   Section        0  lto-llvm-434951.o(.text.rt_mutex_create)
    rt_mutex_release                         0x08009515   Thumb Code   504  lto-llvm-434951.o(.text.rt_mutex_release)
    [Anonymous Symbol]                       0x08009514   Section        0  lto-llvm-434951.o(.text.rt_mutex_release)
    rt_mutex_take                            0x0800970d   Thumb Code   548  lto-llvm-434951.o(.text.rt_mutex_take)
    [Anonymous Symbol]                       0x0800970c   Section        0  lto-llvm-434951.o(.text.rt_mutex_take)
    rt_object_allocate                       0x08009931   Thumb Code   212  lto-llvm-434951.o(.text.rt_object_allocate)
    [Anonymous Symbol]                       0x08009930   Section        0  lto-llvm-434951.o(.text.rt_object_allocate)
    rt_object_delete                         0x08009a05   Thumb Code   118  lto-llvm-434951.o(.text.rt_object_delete)
    [Anonymous Symbol]                       0x08009a04   Section        0  lto-llvm-434951.o(.text.rt_object_delete)
    rt_object_detach                         0x08009a7d   Thumb Code    74  lto-llvm-434951.o(.text.rt_object_detach)
    [Anonymous Symbol]                       0x08009a7c   Section        0  lto-llvm-434951.o(.text.rt_object_detach)
    rt_object_get_information                0x08009ac9   Thumb Code    80  lto-llvm-434951.o(.text.rt_object_get_information)
    [Anonymous Symbol]                       0x08009ac8   Section        0  lto-llvm-434951.o(.text.rt_object_get_information)
    rt_object_get_type                       0x08009b19   Thumb Code    50  lto-llvm-434951.o(.text.rt_object_get_type)
    [Anonymous Symbol]                       0x08009b18   Section        0  lto-llvm-434951.o(.text.rt_object_get_type)
    rt_object_init                           0x08009b4d   Thumb Code   196  lto-llvm-434951.o(.text.rt_object_init)
    [Anonymous Symbol]                       0x08009b4c   Section        0  lto-llvm-434951.o(.text.rt_object_init)
    rt_object_is_systemobject                0x08009c11   Thumb Code    68  lto-llvm-434951.o(.text.rt_object_is_systemobject)
    [Anonymous Symbol]                       0x08009c10   Section        0  lto-llvm-434951.o(.text.rt_object_is_systemobject)
    rt_ringbuffer_data_len                   0x08009c55   Thumb Code   106  lto-llvm-434951.o(.text.rt_ringbuffer_data_len)
    [Anonymous Symbol]                       0x08009c54   Section        0  lto-llvm-434951.o(.text.rt_ringbuffer_data_len)
    rt_ringbuffer_getchar                    0x08009cc1   Thumb Code   144  lto-llvm-434951.o(.text.rt_ringbuffer_getchar)
    [Anonymous Symbol]                       0x08009cc0   Section        0  lto-llvm-434951.o(.text.rt_ringbuffer_getchar)
    rt_ringbuffer_init                       0x08009d51   Thumb Code   138  lto-llvm-434951.o(.text.rt_ringbuffer_init)
    [Anonymous Symbol]                       0x08009d50   Section        0  lto-llvm-434951.o(.text.rt_ringbuffer_init)
    rt_ringbuffer_put                        0x08009ddd   Thumb Code   282  lto-llvm-434951.o(.text.rt_ringbuffer_put)
    [Anonymous Symbol]                       0x08009ddc   Section        0  lto-llvm-434951.o(.text.rt_ringbuffer_put)
    rt_ringbuffer_status                     0x08009ef9   Thumb Code    64  lto-llvm-434951.o(.text.rt_ringbuffer_status)
    [Anonymous Symbol]                       0x08009ef8   Section        0  lto-llvm-434951.o(.text.rt_ringbuffer_status)
    rt_schedule                              0x08009f39   Thumb Code   182  lto-llvm-434951.o(.text.rt_schedule)
    [Anonymous Symbol]                       0x08009f38   Section        0  lto-llvm-434951.o(.text.rt_schedule)
    rt_schedule_insert_thread                0x08009ff1   Thumb Code   116  lto-llvm-434951.o(.text.rt_schedule_insert_thread)
    [Anonymous Symbol]                       0x08009ff0   Section        0  lto-llvm-434951.o(.text.rt_schedule_insert_thread)
    rt_schedule_remove_thread                0x0800a065   Thumb Code   114  lto-llvm-434951.o(.text.rt_schedule_remove_thread)
    [Anonymous Symbol]                       0x0800a064   Section        0  lto-llvm-434951.o(.text.rt_schedule_remove_thread)
    rt_sem_create                            0x0800a0d9   Thumb Code   180  lto-llvm-434951.o(.text.rt_sem_create)
    [Anonymous Symbol]                       0x0800a0d8   Section        0  lto-llvm-434951.o(.text.rt_sem_create)
    rt_sem_init                              0x0800a18d   Thumb Code   112  lto-llvm-434951.o(.text.rt_sem_init)
    [Anonymous Symbol]                       0x0800a18c   Section        0  lto-llvm-434951.o(.text.rt_sem_init)
    rt_sem_release                           0x0800a1fd   Thumb Code   192  lto-llvm-434951.o(.text.rt_sem_release)
    [Anonymous Symbol]                       0x0800a1fc   Section        0  lto-llvm-434951.o(.text.rt_sem_release)
    rt_sem_take                              0x0800a2bd   Thumb Code   384  lto-llvm-434951.o(.text.rt_sem_take)
    [Anonymous Symbol]                       0x0800a2bc   Section        0  lto-llvm-434951.o(.text.rt_sem_take)
    rt_show_version                          0x0800a43d   Thumb Code    72  lto-llvm-434951.o(.text.rt_show_version)
    [Anonymous Symbol]                       0x0800a43c   Section        0  lto-llvm-434951.o(.text.rt_show_version)
    rt_soft_timer_check                      0x0800a485   Thumb Code   268  lto-llvm-434951.o(.text.rt_soft_timer_check)
    [Anonymous Symbol]                       0x0800a484   Section        0  lto-llvm-434951.o(.text.rt_soft_timer_check)
    rt_sprintf                               0x0800a591   Thumb Code    58  lto-llvm-434951.o(.text.rt_sprintf)
    [Anonymous Symbol]                       0x0800a590   Section        0  lto-llvm-434951.o(.text.rt_sprintf)
    rt_strncpy                               0x0800a5cd   Thumb Code    92  lto-llvm-434951.o(.text.rt_strncpy)
    [Anonymous Symbol]                       0x0800a5cc   Section        0  lto-llvm-434951.o(.text.rt_strncpy)
    rt_system_heap_init                      0x0800a629   Thumb Code   308  lto-llvm-434951.o(.text.rt_system_heap_init)
    [Anonymous Symbol]                       0x0800a628   Section        0  lto-llvm-434951.o(.text.rt_system_heap_init)
    rt_system_scheduler_init                 0x0800a75d   Thumb Code   100  lto-llvm-434951.o(.text.rt_system_scheduler_init)
    [Anonymous Symbol]                       0x0800a75c   Section        0  lto-llvm-434951.o(.text.rt_system_scheduler_init)
    rt_system_scheduler_start                0x0800a7c1   Thumb Code    64  lto-llvm-434951.o(.text.rt_system_scheduler_start)
    [Anonymous Symbol]                       0x0800a7c0   Section        0  lto-llvm-434951.o(.text.rt_system_scheduler_start)
    rt_system_timer_init                     0x0800a801   Thumb Code    48  lto-llvm-434951.o(.text.rt_system_timer_init)
    [Anonymous Symbol]                       0x0800a800   Section        0  lto-llvm-434951.o(.text.rt_system_timer_init)
    rt_system_timer_thread_init              0x0800a831   Thumb Code   110  lto-llvm-434951.o(.text.rt_system_timer_thread_init)
    [Anonymous Symbol]                       0x0800a830   Section        0  lto-llvm-434951.o(.text.rt_system_timer_thread_init)
    rt_thread_control                        0x0800a8a1   Thumb Code   250  lto-llvm-434951.o(.text.rt_thread_control)
    [Anonymous Symbol]                       0x0800a8a0   Section        0  lto-llvm-434951.o(.text.rt_thread_control)
    rt_thread_create                         0x0800a99d   Thumb Code   122  lto-llvm-434951.o(.text.rt_thread_create)
    [Anonymous Symbol]                       0x0800a99c   Section        0  lto-llvm-434951.o(.text.rt_thread_create)
    rt_thread_delay                          0x0800aa19   Thumb Code    16  lto-llvm-434951.o(.text.rt_thread_delay)
    [Anonymous Symbol]                       0x0800aa18   Section        0  lto-llvm-434951.o(.text.rt_thread_delay)
    rt_thread_delete                         0x0800aa29   Thumb Code   208  lto-llvm-434951.o(.text.rt_thread_delete)
    [Anonymous Symbol]                       0x0800aa28   Section        0  lto-llvm-434951.o(.text.rt_thread_delete)
    rt_thread_detach                         0x0800aaf9   Thumb Code   230  lto-llvm-434951.o(.text.rt_thread_detach)
    [Anonymous Symbol]                       0x0800aaf8   Section        0  lto-llvm-434951.o(.text.rt_thread_detach)
    rt_thread_exit                           0x0800abe1   Thumb Code    94  lto-llvm-434951.o(.text.rt_thread_exit)
    [Anonymous Symbol]                       0x0800abe0   Section        0  lto-llvm-434951.o(.text.rt_thread_exit)
    rt_thread_idle_entry                     0x0800ac41   Thumb Code    72  lto-llvm-434951.o(.text.rt_thread_idle_entry)
    [Anonymous Symbol]                       0x0800ac40   Section        0  lto-llvm-434951.o(.text.rt_thread_idle_entry)
    rt_thread_idle_excute                    0x0800ac89   Thumb Code   140  lto-llvm-434951.o(.text.rt_thread_idle_excute)
    [Anonymous Symbol]                       0x0800ac88   Section        0  lto-llvm-434951.o(.text.rt_thread_idle_excute)
    rt_thread_idle_init                      0x0800ad15   Thumb Code    70  lto-llvm-434951.o(.text.rt_thread_idle_init)
    [Anonymous Symbol]                       0x0800ad14   Section        0  lto-llvm-434951.o(.text.rt_thread_idle_init)
    rt_thread_idle_sethook                   0x0800ad5d   Thumb Code   102  lto-llvm-434951.o(.text.rt_thread_idle_sethook)
    [Anonymous Symbol]                       0x0800ad5c   Section        0  lto-llvm-434951.o(.text.rt_thread_idle_sethook)
    rt_thread_init                           0x0800adc5   Thumb Code   146  lto-llvm-434951.o(.text.rt_thread_init)
    [Anonymous Symbol]                       0x0800adc4   Section        0  lto-llvm-434951.o(.text.rt_thread_init)
    rt_thread_mdelay                         0x0800ae59   Thumb Code    24  lto-llvm-434951.o(.text.rt_thread_mdelay)
    [Anonymous Symbol]                       0x0800ae58   Section        0  lto-llvm-434951.o(.text.rt_thread_mdelay)
    rt_thread_resume                         0x0800ae71   Thumb Code   160  lto-llvm-434951.o(.text.rt_thread_resume)
    [Anonymous Symbol]                       0x0800ae70   Section        0  lto-llvm-434951.o(.text.rt_thread_resume)
    rt_thread_self                           0x0800af11   Thumb Code    12  lto-llvm-434951.o(.text.rt_thread_self)
    [Anonymous Symbol]                       0x0800af10   Section        0  lto-llvm-434951.o(.text.rt_thread_self)
    rt_thread_sleep                          0x0800af1d   Thumb Code   150  lto-llvm-434951.o(.text.rt_thread_sleep)
    [Anonymous Symbol]                       0x0800af1c   Section        0  lto-llvm-434951.o(.text.rt_thread_sleep)
    rt_thread_startup                        0x0800afb5   Thumb Code   176  lto-llvm-434951.o(.text.rt_thread_startup)
    [Anonymous Symbol]                       0x0800afb4   Section        0  lto-llvm-434951.o(.text.rt_thread_startup)
    rt_thread_suspend                        0x0800b065   Thumb Code   168  lto-llvm-434951.o(.text.rt_thread_suspend)
    [Anonymous Symbol]                       0x0800b064   Section        0  lto-llvm-434951.o(.text.rt_thread_suspend)
    rt_thread_timeout                        0x0800b10d   Thumb Code   152  lto-llvm-434951.o(.text.rt_thread_timeout)
    [Anonymous Symbol]                       0x0800b10c   Section        0  lto-llvm-434951.o(.text.rt_thread_timeout)
    rt_thread_timer_entry                    0x0800b1a5   Thumb Code    84  lto-llvm-434951.o(.text.rt_thread_timer_entry)
    [Anonymous Symbol]                       0x0800b1a4   Section        0  lto-llvm-434951.o(.text.rt_thread_timer_entry)
    rt_thread_yield                          0x0800b1f9   Thumb Code   114  lto-llvm-434951.o(.text.rt_thread_yield)
    [Anonymous Symbol]                       0x0800b1f8   Section        0  lto-llvm-434951.o(.text.rt_thread_yield)
    rt_tick_from_millisecond                 0x0800b26d   Thumb Code    96  lto-llvm-434951.o(.text.rt_tick_from_millisecond)
    [Anonymous Symbol]                       0x0800b26c   Section        0  lto-llvm-434951.o(.text.rt_tick_from_millisecond)
    rt_tick_get                              0x0800b2cd   Thumb Code    12  lto-llvm-434951.o(.text.rt_tick_get)
    [Anonymous Symbol]                       0x0800b2cc   Section        0  lto-llvm-434951.o(.text.rt_tick_get)
    rt_tick_increase                         0x0800b2d9   Thumb Code    60  lto-llvm-434951.o(.text.rt_tick_increase)
    [Anonymous Symbol]                       0x0800b2d8   Section        0  lto-llvm-434951.o(.text.rt_tick_increase)
    rt_timer_check                           0x0800b315   Thumb Code   238  lto-llvm-434951.o(.text.rt_timer_check)
    [Anonymous Symbol]                       0x0800b314   Section        0  lto-llvm-434951.o(.text.rt_timer_check)
    rt_timer_control                         0x0800b405   Thumb Code   188  lto-llvm-434951.o(.text.rt_timer_control)
    [Anonymous Symbol]                       0x0800b404   Section        0  lto-llvm-434951.o(.text.rt_timer_control)
    rt_timer_create                          0x0800b4c1   Thumb Code    94  lto-llvm-434951.o(.text.rt_timer_create)
    [Anonymous Symbol]                       0x0800b4c0   Section        0  lto-llvm-434951.o(.text.rt_timer_create)
    rt_timer_detach                          0x0800b521   Thumb Code   144  lto-llvm-434951.o(.text.rt_timer_detach)
    [Anonymous Symbol]                       0x0800b520   Section        0  lto-llvm-434951.o(.text.rt_timer_detach)
    rt_timer_init                            0x0800b5b1   Thumb Code    92  lto-llvm-434951.o(.text.rt_timer_init)
    [Anonymous Symbol]                       0x0800b5b0   Section        0  lto-llvm-434951.o(.text.rt_timer_init)
    rt_timer_list_next_timeout               0x0800b60d   Thumb Code    64  lto-llvm-434951.o(.text.rt_timer_list_next_timeout)
    [Anonymous Symbol]                       0x0800b60c   Section        0  lto-llvm-434951.o(.text.rt_timer_list_next_timeout)
    rt_timer_start                           0x0800b64d   Thumb Code   544  lto-llvm-434951.o(.text.rt_timer_start)
    [Anonymous Symbol]                       0x0800b64c   Section        0  lto-llvm-434951.o(.text.rt_timer_start)
    rt_timer_stop                            0x0800b86d   Thumb Code   138  lto-llvm-434951.o(.text.rt_timer_stop)
    [Anonymous Symbol]                       0x0800b86c   Section        0  lto-llvm-434951.o(.text.rt_timer_stop)
    rt_vsnprintf                             0x0800b8f9   Thumb Code  1464  lto-llvm-434951.o(.text.rt_vsnprintf)
    [Anonymous Symbol]                       0x0800b8f8   Section        0  lto-llvm-434951.o(.text.rt_vsnprintf)
    rt_vsprintf                              0x0800beb1   Thumb Code    28  lto-llvm-434951.o(.text.rt_vsprintf)
    [Anonymous Symbol]                       0x0800beb0   Section        0  lto-llvm-434951.o(.text.rt_vsprintf)
    rti_board_end                            0x0800becd   Thumb Code     4  lto-llvm-434951.o(.text.rti_board_end)
    [Anonymous Symbol]                       0x0800becc   Section        0  lto-llvm-434951.o(.text.rti_board_end)
    rti_board_start                          0x0800bed1   Thumb Code     4  lto-llvm-434951.o(.text.rti_board_start)
    [Anonymous Symbol]                       0x0800bed0   Section        0  lto-llvm-434951.o(.text.rti_board_start)
    rti_end                                  0x0800bed5   Thumb Code     4  lto-llvm-434951.o(.text.rti_end)
    [Anonymous Symbol]                       0x0800bed4   Section        0  lto-llvm-434951.o(.text.rti_end)
    rti_start                                0x0800bed9   Thumb Code     4  lto-llvm-434951.o(.text.rti_start)
    [Anonymous Symbol]                       0x0800bed8   Section        0  lto-llvm-434951.o(.text.rti_start)
    rtthread_startup                         0x0800bedd   Thumb Code    40  lto-llvm-434951.o(.text.rtthread_startup)
    [Anonymous Symbol]                       0x0800bedc   Section        0  lto-llvm-434951.o(.text.rtthread_startup)
    serv_ad7490_fetcher_init                 0x0800bf05   Thumb Code   158  lto-llvm-434951.o(.text.serv_ad7490_fetcher_init)
    [Anonymous Symbol]                       0x0800bf04   Section        0  lto-llvm-434951.o(.text.serv_ad7490_fetcher_init)
    serv_ad7490_fetcher_main                 0x0800bfa9   Thumb Code   704  lto-llvm-434951.o(.text.serv_ad7490_fetcher_main)
    [Anonymous Symbol]                       0x0800bfa8   Section        0  lto-llvm-434951.o(.text.serv_ad7490_fetcher_main)
    serv_init                                0x0800c269   Thumb Code    16  lto-llvm-434951.o(.text.serv_init)
    [Anonymous Symbol]                       0x0800c268   Section        0  lto-llvm-434951.o(.text.serv_init)
    serv_key_listener_init                   0x0800c279   Thumb Code   108  lto-llvm-434951.o(.text.serv_key_listener_init)
    [Anonymous Symbol]                       0x0800c278   Section        0  lto-llvm-434951.o(.text.serv_key_listener_init)
    serv_key_listener_main                   0x0800c2e5   Thumb Code   272  lto-llvm-434951.o(.text.serv_key_listener_main)
    [Anonymous Symbol]                       0x0800c2e4   Section        0  lto-llvm-434951.o(.text.serv_key_listener_main)
    serv_led_sign_hw_init                    0x0800c3f5   Thumb Code    54  lto-llvm-434951.o(.text.serv_led_sign_hw_init)
    [Anonymous Symbol]                       0x0800c3f4   Section        0  lto-llvm-434951.o(.text.serv_led_sign_hw_init)
    serv_led_sign_idle                       0x0800c42d   Thumb Code     2  lto-llvm-434951.o(.text.serv_led_sign_idle)
    [Anonymous Symbol]                       0x0800c42c   Section        0  lto-llvm-434951.o(.text.serv_led_sign_idle)
    serv_led_sign_init                       0x0800c431   Thumb Code    50  lto-llvm-434951.o(.text.serv_led_sign_init)
    [Anonymous Symbol]                       0x0800c430   Section        0  lto-llvm-434951.o(.text.serv_led_sign_init)
    serv_led_sign_send_event                 0x0800c465   Thumb Code    32  lto-llvm-434951.o(.text.serv_led_sign_send_event)
    [Anonymous Symbol]                       0x0800c464   Section        0  lto-llvm-434951.o(.text.serv_led_sign_send_event)
    shell_auto_complete                      0x0800c485   Thumb Code    56  lto-llvm-434951.o(.text.shell_auto_complete)
    [Anonymous Symbol]                       0x0800c484   Section        0  lto-llvm-434951.o(.text.shell_auto_complete)
    show_wait_queue                          0x0800c4bd   Thumb Code    84  lto-llvm-434951.o(.text.show_wait_queue)
    [Anonymous Symbol]                       0x0800c4bc   Section        0  lto-llvm-434951.o(.text.show_wait_queue)
    skip_atoi                                0x0800c511   Thumb Code    56  lto-llvm-434951.o(.text.skip_atoi)
    [Anonymous Symbol]                       0x0800c510   Section        0  lto-llvm-434951.o(.text.skip_atoi)
    start_cycle_counter                      0x0800c549   Thumb Code   116  lto-llvm-434951.o(.text.start_cycle_counter)
    [Anonymous Symbol]                       0x0800c548   Section        0  lto-llvm-434951.o(.text.start_cycle_counter)
    stop_cycle_counter                       0x0800c5bd   Thumb Code   166  lto-llvm-434951.o(.text.stop_cycle_counter)
    [Anonymous Symbol]                       0x0800c5bc   Section        0  lto-llvm-434951.o(.text.stop_cycle_counter)
    str_common                               0x0800c665   Thumb Code    80  lto-llvm-434951.o(.text.str_common)
    [Anonymous Symbol]                       0x0800c664   Section        0  lto-llvm-434951.o(.text.str_common)
    sub_thread_control_entry                 0x0800c6b9   Thumb Code   536  lto-llvm-434951.o(.text.sub_thread_control_entry)
    [Anonymous Symbol]                       0x0800c6b8   Section        0  lto-llvm-434951.o(.text.sub_thread_control_entry)
    sub_thread_control_init                  0x0800c8d1   Thumb Code    52  lto-llvm-434951.o(.text.sub_thread_control_init)
    [Anonymous Symbol]                       0x0800c8d0   Section        0  lto-llvm-434951.o(.text.sub_thread_control_init)
    timeout_entry                            0x0800c905   Thumb Code    46  lto-llvm-434951.o(.text.timeout_entry)
    [Anonymous Symbol]                       0x0800c904   Section        0  lto-llvm-434951.o(.text.timeout_entry)
    usage_fault_track                        0x0800c935   Thumb Code   232  lto-llvm-434951.o(.text.usage_fault_track)
    [Anonymous Symbol]                       0x0800c934   Section        0  lto-llvm-434951.o(.text.usage_fault_track)
    [Anonymous Symbol]                       0x0800ca1c   Section        0  lto-llvm-434951.o(.text.user_code_insert_to_systick_handler)
    version                                  0x0800ca59   Thumb Code    10  lto-llvm-434951.o(.text.version)
    [Anonymous Symbol]                       0x0800ca58   Section        0  lto-llvm-434951.o(.text.version)
    i.__scatterload_copy                     0x0800ca62   Section       14  handlers.o(i.__scatterload_copy)
    i.__scatterload_null                     0x0800ca70   Section        2  handlers.o(i.__scatterload_null)
    i.__scatterload_zeroinit                 0x0800ca72   Section       14  handlers.o(i.__scatterload_zeroinit)
    __rti_hw_init_name                       0x0800ca80   Data           8  lto-llvm-434951.o(.rodata)
    [Anonymous Symbol]                       0x0800ca80   Section        0  lto-llvm-434951.o(.rodata)
    __rti_finsh_system_init_name             0x0800ca88   Data          18  lto-llvm-434951.o(.rodata)
    __rti_rti_start_name                     0x0800ca9a   Data          10  lto-llvm-434951.o(.rodata)
    __rti_rti_board_start_name               0x0800caa4   Data          16  lto-llvm-434951.o(.rodata)
    __rti_rti_board_end_name                 0x0800cab4   Data          14  lto-llvm-434951.o(.rodata)
    __rti_rti_end_name                       0x0800cac2   Data           8  lto-llvm-434951.o(.rodata)
    __lowest_bit_bitmap                      0x0800caca   Data         256  lto-llvm-434951.o(.rodata)
    print_number.large_digits                0x0800cbca   Data          17  lto-llvm-434951.o(.rodata)
    print_number.small_digits                0x0800cbdb   Data          17  lto-llvm-434951.o(.rodata)
    control_target                           0x0800cbf0   Data         128  lto-llvm-434951.o(.rodata)
    .L__const.serv_led_sign_hw_init.CS_Initure 0x0800cc70   Data          20  lto-llvm-434951.o(.rodata)
    AHBPrescTable                            0x0800cc84   Data          16  lto-llvm-434951.o(.rodata.cst16)
    [Anonymous Symbol]                       0x0800cc84   Section        0  lto-llvm-434951.o(.rodata.cst16)
    APBPrescTable                            0x0800cc94   Data           8  lto-llvm-434951.o(.rodata.cst8)
    [Anonymous Symbol]                       0x0800cc94   Section        0  lto-llvm-434951.o(.rodata.cst8)
    DMA_CalcBaseAndBitshift.flagBitshiftOffset 0x0800cc9c   Data           8  lto-llvm-434951.o(.rodata.cst8)
    __fsym_hello_name                        0x0800cca4   Data           6  lto-llvm-434951.o(.rodata.name)
    [Anonymous Symbol]                       0x0800cca4   Section        0  lto-llvm-434951.o(.rodata.name)
    __fsym_hello_desc                        0x0800ccaa   Data          16  lto-llvm-434951.o(.rodata.name)
    __fsym_version_name                      0x0800ccba   Data           8  lto-llvm-434951.o(.rodata.name)
    __fsym_version_desc                      0x0800ccc2   Data          35  lto-llvm-434951.o(.rodata.name)
    __fsym___cmd_version_name                0x0800cce5   Data          14  lto-llvm-434951.o(.rodata.name)
    __fsym___cmd_version_desc                0x0800ccf3   Data          35  lto-llvm-434951.o(.rodata.name)
    __fsym_list_thread_name                  0x0800cd16   Data          12  lto-llvm-434951.o(.rodata.name)
    __fsym_list_thread_desc                  0x0800cd22   Data          12  lto-llvm-434951.o(.rodata.name)
    __fsym___cmd_list_thread_name            0x0800cd2e   Data          18  lto-llvm-434951.o(.rodata.name)
    __fsym___cmd_list_thread_desc            0x0800cd40   Data          12  lto-llvm-434951.o(.rodata.name)
    __fsym_list_sem_name                     0x0800cd4c   Data           9  lto-llvm-434951.o(.rodata.name)
    __fsym_list_sem_desc                     0x0800cd55   Data          25  lto-llvm-434951.o(.rodata.name)
    __fsym___cmd_list_sem_name               0x0800cd6e   Data          15  lto-llvm-434951.o(.rodata.name)
    __fsym___cmd_list_sem_desc               0x0800cd7d   Data          25  lto-llvm-434951.o(.rodata.name)
    __fsym_list_event_name                   0x0800cd96   Data          11  lto-llvm-434951.o(.rodata.name)
    __fsym_list_event_desc                   0x0800cda1   Data          21  lto-llvm-434951.o(.rodata.name)
    __fsym___cmd_list_event_name             0x0800cdb6   Data          17  lto-llvm-434951.o(.rodata.name)
    __fsym___cmd_list_event_desc             0x0800cdc7   Data          21  lto-llvm-434951.o(.rodata.name)
    __fsym_list_mutex_name                   0x0800cddc   Data          11  lto-llvm-434951.o(.rodata.name)
    __fsym_list_mutex_desc                   0x0800cde7   Data          21  lto-llvm-434951.o(.rodata.name)
    __fsym___cmd_list_mutex_name             0x0800cdfc   Data          17  lto-llvm-434951.o(.rodata.name)
    __fsym___cmd_list_mutex_desc             0x0800ce0d   Data          21  lto-llvm-434951.o(.rodata.name)
    __fsym_list_mailbox_name                 0x0800ce22   Data          13  lto-llvm-434951.o(.rodata.name)
    __fsym_list_mailbox_desc                 0x0800ce2f   Data          24  lto-llvm-434951.o(.rodata.name)
    __fsym___cmd_list_mailbox_name           0x0800ce47   Data          19  lto-llvm-434951.o(.rodata.name)
    __fsym___cmd_list_mailbox_desc           0x0800ce5a   Data          24  lto-llvm-434951.o(.rodata.name)
    __fsym_list_mempool_name                 0x0800ce72   Data          13  lto-llvm-434951.o(.rodata.name)
    __fsym_list_mempool_desc                 0x0800ce7f   Data          27  lto-llvm-434951.o(.rodata.name)
    __fsym___cmd_list_mempool_name           0x0800ce9a   Data          19  lto-llvm-434951.o(.rodata.name)
    __fsym___cmd_list_mempool_desc           0x0800cead   Data          27  lto-llvm-434951.o(.rodata.name)
    __fsym_list_timer_name                   0x0800cec8   Data          11  lto-llvm-434951.o(.rodata.name)
    __fsym_list_timer_desc                   0x0800ced3   Data          21  lto-llvm-434951.o(.rodata.name)
    __fsym___cmd_list_timer_name             0x0800cee8   Data          17  lto-llvm-434951.o(.rodata.name)
    __fsym___cmd_list_timer_desc             0x0800cef9   Data          21  lto-llvm-434951.o(.rodata.name)
    __fsym_list_name                         0x0800cf0e   Data           5  lto-llvm-434951.o(.rodata.name)
    __fsym_list_desc                         0x0800cf13   Data          26  lto-llvm-434951.o(.rodata.name)
    __fsym___cmd_help_name                   0x0800cf2d   Data          11  lto-llvm-434951.o(.rodata.name)
    __fsym___cmd_help_desc                   0x0800cf38   Data          22  lto-llvm-434951.o(.rodata.name)
    __fsym___cmd_ps_name                     0x0800cf4e   Data           9  lto-llvm-434951.o(.rodata.name)
    __fsym___cmd_ps_desc                     0x0800cf57   Data          28  lto-llvm-434951.o(.rodata.name)
    __fsym___cmd_free_name                   0x0800cf73   Data          11  lto-llvm-434951.o(.rodata.name)
    __fsym___cmd_free_desc                   0x0800cf7e   Data          37  lto-llvm-434951.o(.rodata.name)
    __fsym_list_mem_name                     0x0800cfa3   Data           9  lto-llvm-434951.o(.rodata.name)
    __fsym_list_mem_desc                     0x0800cfac   Data          30  lto-llvm-434951.o(.rodata.name)
    .L.str.7.86                              0x0800cfca   Data           4  lto-llvm-434951.o(.rodata.str1.1)
    [Anonymous Symbol]                       0x0800cfca   Section        0  lto-llvm-434951.o(.rodata.str1.1)
    .L.str.6.85                              0x0800cfce   Data           7  lto-llvm-434951.o(.rodata.str1.1)
    .L.str.4.83                              0x0800cfd3   Data           2  lto-llvm-434951.o(.rodata.str1.1)
    .L.str.17.111                            0x0800cfd5   Data          26  lto-llvm-434951.o(.rodata.str1.1)
    .L.str.16.110                            0x0800cfef   Data          29  lto-llvm-434951.o(.rodata.str1.1)
    .L.str.3.359                             0x0800d00c   Data          25  lto-llvm-434951.o(.rodata.str1.1)
    .L.str.4.360                             0x0800d025   Data          26  lto-llvm-434951.o(.rodata.str1.1)
    .L.str.2.358                             0x0800d03f   Data          25  lto-llvm-434951.o(.rodata.str1.1)
    .L.str.5.361                             0x0800d058   Data          18  lto-llvm-434951.o(.rodata.str1.1)
    .L.str.9.357                             0x0800d06a   Data          33  lto-llvm-434951.o(.rodata.str1.1)
    .L.str.18.112                            0x0800d08b   Data          14  lto-llvm-434951.o(.rodata.str1.1)
    .L.str.1.387                             0x0800d099   Data          39  lto-llvm-434951.o(.rodata.str1.1)
    .L.str.7.355                             0x0800d0c0   Data          16  lto-llvm-434951.o(.rodata.str1.1)
    .L.str.8.356                             0x0800d0d0   Data          29  lto-llvm-434951.o(.rodata.str1.1)
    .L.str.6.203                             0x0800d0ed   Data          55  lto-llvm-434951.o(.rodata.str1.1)
    .L.str                                   0x0800d124   Data          18  lto-llvm-434951.o(.rodata.str1.1)
    .L.str.6.374                             0x0800d136   Data          26  lto-llvm-434951.o(.rodata.str1.1)
    .L.str.4.373                             0x0800d150   Data          29  lto-llvm-434951.o(.rodata.str1.1)
    .L.str.3                                 0x0800d16d   Data          61  lto-llvm-434951.o(.rodata.str1.1)
    .L.str.38                                0x0800d1aa   Data          36  lto-llvm-434951.o(.rodata.str1.1)
    .L.str.13                                0x0800d1ce   Data          21  lto-llvm-434951.o(.rodata.str1.1)
    .L.str.33                                0x0800d1e3   Data          34  lto-llvm-434951.o(.rodata.str1.1)
    .L.str.28                                0x0800d1e9   Data          28  lto-llvm-434951.o(.rodata.str1.1)
    .L.str.24                                0x0800d205   Data          31  lto-llvm-434951.o(.rodata.str1.1)
    .L.str.19                                0x0800d224   Data          29  lto-llvm-434951.o(.rodata.str1.1)
    .L.str.4.69                              0x0800d241   Data          24  lto-llvm-434951.o(.rodata.str1.1)
    .L.str.2.150                             0x0800d259   Data          31  lto-llvm-434951.o(.rodata.str1.1)
    .L.str.2.287                             0x0800d278   Data          53  lto-llvm-434951.o(.rodata.str1.1)
    .L.str.193                               0x0800d2ad   Data           9  lto-llvm-434951.o(.rodata.str1.1)
    .L.str.21                                0x0800d2b6   Data          18  lto-llvm-434951.o(.rodata.str1.1)
    .L.str.8.72                              0x0800d2c8   Data          30  lto-llvm-434951.o(.rodata.str1.1)
    .L.str.10.229                            0x0800d2e6   Data          27  lto-llvm-434951.o(.rodata.str1.1)
    .L.str.64                                0x0800d301   Data          27  lto-llvm-434951.o(.rodata.str1.1)
    .L.str.32.124                            0x0800d31c   Data          19  lto-llvm-434951.o(.rodata.str1.1)
    .L.str.39.115                            0x0800d32f   Data          14  lto-llvm-434951.o(.rodata.str1.1)
    .L.str.23.131                            0x0800d33d   Data          12  lto-llvm-434951.o(.rodata.str1.1)
    .L.str.43                                0x0800d349   Data          18  lto-llvm-434951.o(.rodata.str1.1)
    .L.str.3.267                             0x0800d35b   Data          39  lto-llvm-434951.o(.rodata.str1.1)
    .L.str.30.138                            0x0800d382   Data          16  lto-llvm-434951.o(.rodata.str1.1)
    .L.str.38.130                            0x0800d392   Data          16  lto-llvm-434951.o(.rodata.str1.1)
    .L.str.15.207                            0x0800d3a2   Data          18  lto-llvm-434951.o(.rodata.str1.1)
    .L.str.16.208                            0x0800d3b4   Data          30  lto-llvm-434951.o(.rodata.str1.1)
    .L.str.14.206                            0x0800d3d2   Data          18  lto-llvm-434951.o(.rodata.str1.1)
    .L.str.16                                0x0800d3e4   Data          16  lto-llvm-434951.o(.rodata.str1.1)
    .L.str.35                                0x0800d3f4   Data          28  lto-llvm-434951.o(.rodata.str1.1)
    .L.str.30                                0x0800d410   Data          22  lto-llvm-434951.o(.rodata.str1.1)
    .L.str.25                                0x0800d426   Data          23  lto-llvm-434951.o(.rodata.str1.1)
    .L.str.10                                0x0800d43d   Data          40  lto-llvm-434951.o(.rodata.str1.1)
    .L.str.18                                0x0800d465   Data          34  lto-llvm-434951.o(.rodata.str1.1)
    .L.str.12                                0x0800d487   Data          26  lto-llvm-434951.o(.rodata.str1.1)
    .L.str.23                                0x0800d4a1   Data          36  lto-llvm-434951.o(.rodata.str1.1)
    .L.str.32                                0x0800d4c5   Data          39  lto-llvm-434951.o(.rodata.str1.1)
    .L.str.27                                0x0800d4ec   Data          33  lto-llvm-434951.o(.rodata.str1.1)
    .L.str.41                                0x0800d50d   Data          13  lto-llvm-434951.o(.rodata.str1.1)
    .L.str.40                                0x0800d50f   Data          11  lto-llvm-434951.o(.rodata.str1.1)
    .L.str.1.149                             0x0800d51a   Data          10  lto-llvm-434951.o(.rodata.str1.1)
    .L.str.37                                0x0800d524   Data          38  lto-llvm-434951.o(.rodata.str1.1)
    .L.str.21.113                            0x0800d54a   Data          21  lto-llvm-434951.o(.rodata.str1.1)
    .L.str.10.79                             0x0800d55f   Data          21  lto-llvm-434951.o(.rodata.str1.1)
    .L.str.4.199                             0x0800d574   Data          42  lto-llvm-434951.o(.rodata.str1.1)
    .L.str.1.196                             0x0800d59e   Data          36  lto-llvm-434951.o(.rodata.str1.1)
    .L.str.2                                 0x0800d5c2   Data          68  lto-llvm-434951.o(.rodata.str1.1)
    .L.str.2.66                              0x0800d606   Data          12  lto-llvm-434951.o(.rodata.str1.1)
    .L.str.45                                0x0800d612   Data          13  lto-llvm-434951.o(.rodata.str1.1)
    .L.str.2.197                             0x0800d61f   Data          30  lto-llvm-434951.o(.rodata.str1.1)
    .L.str.5.74                              0x0800d639   Data           4  lto-llvm-434951.o(.rodata.str1.1)
    .L.str.22.114                            0x0800d63d   Data          13  lto-llvm-434951.o(.rodata.str1.1)
    .L.str.7.168                             0x0800d64a   Data          55  lto-llvm-434951.o(.rodata.str1.1)
    .L.str.1.286                             0x0800d681   Data          26  lto-llvm-434951.o(.rodata.str1.1)
    .L.str.2.214                             0x0800d69b   Data          58  lto-llvm-434951.o(.rodata.str1.1)
    .L.str.11.230                            0x0800d6d5   Data          48  lto-llvm-434951.o(.rodata.str1.1)
    .L.str.1.95                              0x0800d705   Data          13  lto-llvm-434951.o(.rodata.str1.1)
    .L.str.11.105                            0x0800d712   Data          13  lto-llvm-434951.o(.rodata.str1.1)
    .L.str.2.96                              0x0800d71f   Data          13  lto-llvm-434951.o(.rodata.str1.1)
    .L.str.12.106                            0x0800d72c   Data          13  lto-llvm-434951.o(.rodata.str1.1)
    .L.str.3.97                              0x0800d739   Data          13  lto-llvm-434951.o(.rodata.str1.1)
    .L.str.13.107                            0x0800d746   Data          13  lto-llvm-434951.o(.rodata.str1.1)
    .L.str.4.98                              0x0800d753   Data          13  lto-llvm-434951.o(.rodata.str1.1)
    .L.str.5.99                              0x0800d760   Data          13  lto-llvm-434951.o(.rodata.str1.1)
    .L.str.6.100                             0x0800d76d   Data          13  lto-llvm-434951.o(.rodata.str1.1)
    .L.str.7.101                             0x0800d77a   Data          13  lto-llvm-434951.o(.rodata.str1.1)
    .L.str.8.102                             0x0800d787   Data          13  lto-llvm-434951.o(.rodata.str1.1)
    .L.str.9.103                             0x0800d794   Data          13  lto-llvm-434951.o(.rodata.str1.1)
    .L.str.10.104                            0x0800d7a1   Data          13  lto-llvm-434951.o(.rodata.str1.1)
    .L.str.15.109                            0x0800d7ae   Data          13  lto-llvm-434951.o(.rodata.str1.1)
    .L.str.14.108                            0x0800d7bb   Data          13  lto-llvm-434951.o(.rodata.str1.1)
    .L.str.94                                0x0800d7c8   Data          13  lto-llvm-434951.o(.rodata.str1.1)
    .L.str.42                                0x0800d7d5   Data          21  lto-llvm-434951.o(.rodata.str1.1)
    .L.str.31.123                            0x0800d7e8   Data           2  lto-llvm-434951.o(.rodata.str1.1)
    .L.str.7                                 0x0800d7ea   Data           9  lto-llvm-434951.o(.rodata.str1.1)
    .L.str.8                                 0x0800d7f3   Data           9  lto-llvm-434951.o(.rodata.str1.1)
    .L.str.5                                 0x0800d7fc   Data           9  lto-llvm-434951.o(.rodata.str1.1)
    .L.str.43.119                            0x0800d805   Data           7  lto-llvm-434951.o(.rodata.str1.1)
    .L.str.45.121                            0x0800d80c   Data          11  lto-llvm-434951.o(.rodata.str1.1)
    .L.str.42.118                            0x0800d817   Data          10  lto-llvm-434951.o(.rodata.str1.1)
    .L.str.35.127                            0x0800d821   Data          10  lto-llvm-434951.o(.rodata.str1.1)
    .L.str.34.126                            0x0800d82b   Data          10  lto-llvm-434951.o(.rodata.str1.1)
    .L.str.46.122                            0x0800d835   Data          11  lto-llvm-434951.o(.rodata.str1.1)
    .L.str.44.120                            0x0800d840   Data           6  lto-llvm-434951.o(.rodata.str1.1)
    .L.str.37.129                            0x0800d846   Data           9  lto-llvm-434951.o(.rodata.str1.1)
    .L.str.36.128                            0x0800d84f   Data          11  lto-llvm-434951.o(.rodata.str1.1)
    .L.str.28.136                            0x0800d850   Data          10  lto-llvm-434951.o(.rodata.str1.1)
    .L.str.29.137                            0x0800d852   Data           8  lto-llvm-434951.o(.rodata.str1.1)
    .L.str.27.135                            0x0800d85a   Data          13  lto-llvm-434951.o(.rodata.str1.1)
    .L.str.26.134                            0x0800d85c   Data          11  lto-llvm-434951.o(.rodata.str1.1)
    .L.str.25.133                            0x0800d867   Data           9  lto-llvm-434951.o(.rodata.str1.1)
    .L.str.41.117                            0x0800d870   Data          12  lto-llvm-434951.o(.rodata.str1.1)
    .L.str.24.132                            0x0800d87c   Data          22  lto-llvm-434951.o(.rodata.str1.1)
    .L.str.33.125                            0x0800d892   Data          22  lto-llvm-434951.o(.rodata.str1.1)
    .L.str.40.116                            0x0800d8a8   Data          22  lto-llvm-434951.o(.rodata.str1.1)
    .L.str.4                                 0x0800d8be   Data          12  lto-llvm-434951.o(.rodata.str1.1)
    .L.str.90                                0x0800d8ca   Data           5  lto-llvm-434951.o(.rodata.str1.1)
    .L.str.9.73                              0x0800d8cf   Data           4  lto-llvm-434951.o(.rodata.str1.1)
    .L.str.39                                0x0800d8d3   Data          22  lto-llvm-434951.o(.rodata.str1.1)
    .L.str.4.218                             0x0800d8e9   Data          40  lto-llvm-434951.o(.rodata.str1.1)
    .L.str.5.200                             0x0800d911   Data           7  lto-llvm-434951.o(.rodata.str1.1)
    .L.str.5.271                             0x0800d918   Data          41  lto-llvm-434951.o(.rodata.str1.1)
    .L.str.4.312                             0x0800d941   Data          47  lto-llvm-434951.o(.rodata.str1.1)
    .L.str.2.331                             0x0800d970   Data          42  lto-llvm-434951.o(.rodata.str1.1)
    .L.str.46                                0x0800d99a   Data           2  lto-llvm-434951.o(.rodata.str1.1)
    .L.str.48                                0x0800d99c   Data           2  lto-llvm-434951.o(.rodata.str1.1)
    .L.str.7.221                             0x0800d99e   Data          47  lto-llvm-434951.o(.rodata.str1.1)
    .L.str.8.227                             0x0800d9cd   Data          48  lto-llvm-434951.o(.rodata.str1.1)
    .L.str.6.220                             0x0800d9fd   Data          73  lto-llvm-434951.o(.rodata.str1.1)
    .L.str.19.226                            0x0800da46   Data          15  lto-llvm-434951.o(.rodata.str1.1)
    .L.str.1.366                             0x0800da55   Data           9  lto-llvm-434951.o(.rodata.str1.1)
    .L.str.4.268                             0x0800da5c   Data           2  lto-llvm-434951.o(.rodata.str1.1)
    .L.str.3.198                             0x0800da5e   Data          12  lto-llvm-434951.o(.rodata.str1.1)
    .L.str.4.336                             0x0800da6a   Data          35  lto-llvm-434951.o(.rodata.str1.1)
    .L.str.14                                0x0800da8d   Data          16  lto-llvm-434951.o(.rodata.str1.1)
    .L.str.34                                0x0800da9d   Data          28  lto-llvm-434951.o(.rodata.str1.1)
    .L.str.29                                0x0800dab9   Data          22  lto-llvm-434951.o(.rodata.str1.1)
    .L.str.20                                0x0800dacf   Data          21  lto-llvm-434951.o(.rodata.str1.1)
    .L.str.2.92                              0x0800dae4   Data           2  lto-llvm-434951.o(.rodata.str1.1)
    .L.str.13.232                            0x0800dae6   Data          25  lto-llvm-434951.o(.rodata.str1.1)
    .L.str.7.302                             0x0800daff   Data          58  lto-llvm-434951.o(.rodata.str1.1)
    .L.str.5.315                             0x0800db39   Data          59  lto-llvm-434951.o(.rodata.str1.1)
    .L.str.16.177                            0x0800db74   Data          14  lto-llvm-434951.o(.rodata.str1.1)
    .L.str.365                               0x0800db82   Data          14  lto-llvm-434951.o(.rodata.str1.1)
    .L.str.298                               0x0800db90   Data          18  lto-llvm-434951.o(.rodata.str1.1)
    .L.str.4.152                             0x0800dba2   Data          15  lto-llvm-434951.o(.rodata.str1.1)
    .L.str.3.82                              0x0800dbb1   Data          17  lto-llvm-434951.o(.rodata.str1.1)
    .L.str.160                               0x0800dbc2   Data          15  lto-llvm-434951.o(.rodata.str1.1)
    .L.str.258                               0x0800dbd1   Data          23  lto-llvm-434951.o(.rodata.str1.1)
    .L.str.326                               0x0800dbe8   Data          17  lto-llvm-434951.o(.rodata.str1.1)
    .L.str.2.263                             0x0800dbf9   Data          18  lto-llvm-434951.o(.rodata.str1.1)
    .L.str.12.173                            0x0800dc0b   Data          17  lto-llvm-434951.o(.rodata.str1.1)
    .L.str.1.299                             0x0800dc1c   Data          23  lto-llvm-434951.o(.rodata.str1.1)
    .L.str.8.169                             0x0800dc33   Data          17  lto-llvm-434951.o(.rodata.str1.1)
    .L.str.2.309                             0x0800dc44   Data          55  lto-llvm-434951.o(.rodata.str1.1)
    .L.str.1.161                             0x0800dc7b   Data          17  lto-llvm-434951.o(.rodata.str1.1)
    .L.str.8.301                             0x0800dc8c   Data          34  lto-llvm-434951.o(.rodata.str1.1)
    .L.str.44                                0x0800dcae   Data           3  lto-llvm-434951.o(.rodata.str1.1)
    .L.str.1.65                              0x0800dcb1   Data           7  lto-llvm-434951.o(.rodata.str1.1)
    .L.str.3.372                             0x0800dcb8   Data          11  lto-llvm-434951.o(.rodata.str1.1)
    .L.str.5.84                              0x0800dcc3   Data           3  lto-llvm-434951.o(.rodata.str1.1)
    .L__FUNCTION__.rt_malloc                 0x0800dcc6   Data          10  lto-llvm-434951.o(.rodata.str1.1)
    .L.str.3.303                             0x0800dcd0   Data          66  lto-llvm-434951.o(.rodata.str1.1)
    .L__FUNCTION__.rt_schedule_remove_thread 0x0800dd12   Data          26  lto-llvm-434951.o(.rodata.str1.1)
    .L__FUNCTION__.rt_schedule_insert_thread 0x0800dd2c   Data          26  lto-llvm-434951.o(.rodata.str1.1)
    .L.str.1.353                             0x0800dd46   Data          12  lto-llvm-434951.o(.rodata.str1.1)
    .L.str.1                                 0x0800dd4b   Data           7  lto-llvm-434951.o(.rodata.str1.1)
    .L.str.12.231                            0x0800dd52   Data          10  lto-llvm-434951.o(.rodata.str1.1)
    .L__FUNCTION__._msh_exec_cmd             0x0800dd5c   Data          14  lto-llvm-434951.o(.rodata.str1.1)
    .L.str.6.70                              0x0800dd66   Data           4  lto-llvm-434951.o(.rodata.str1.1)
    .L.str.18.225                            0x0800dd6a   Data          43  lto-llvm-434951.o(.rodata.str1.1)
    .L.str.9.228                             0x0800dd95   Data          92  lto-llvm-434951.o(.rodata.str1.1)
    .L.str.5.219                             0x0800ddf1   Data          67  lto-llvm-434951.o(.rodata.str1.1)
    .L.str.6                                 0x0800de34   Data           9  lto-llvm-434951.o(.rodata.str1.1)
    .L__FUNCTION__.rt_thread_suspend         0x0800de3d   Data          18  lto-llvm-434951.o(.rodata.str1.1)
    .L__FUNCTION__.rt_event_send             0x0800de4f   Data          14  lto-llvm-434951.o(.rodata.str1.1)
    .L__FUNCTION__.finsh_set_prompt_mode     0x0800de5d   Data          22  lto-llvm-434951.o(.rodata.str1.1)
    .L__FUNCTION__.rt_free                   0x0800de73   Data           8  lto-llvm-434951.o(.rodata.str1.1)
    .L__FUNCTION__.rt_sem_take               0x0800de7b   Data          12  lto-llvm-434951.o(.rodata.str1.1)
    .L__FUNCTION__.rt_mutex_take             0x0800de87   Data          14  lto-llvm-434951.o(.rodata.str1.1)
    .L.str.2.157                             0x0800de95   Data           6  lto-llvm-434951.o(.rodata.str1.1)
    .L__FUNCTION__.rt_thread_resume          0x0800de9b   Data          17  lto-llvm-434951.o(.rodata.str1.1)
    .L__FUNCTION__.rt_object_get_type        0x0800deac   Data          19  lto-llvm-434951.o(.rodata.str1.1)
    .L.str.2.162                             0x0800debf   Data          69  lto-llvm-434951.o(.rodata.str1.1)
    .L.str.11                                0x0800df04   Data          10  lto-llvm-434951.o(.rodata.str1.1)
    .L__FUNCTION__.rt_sem_release            0x0800df0e   Data          15  lto-llvm-434951.o(.rodata.str1.1)
    .L__FUNCTION__.rt_mutex_release          0x0800df1d   Data          17  lto-llvm-434951.o(.rodata.str1.1)
    .L__FUNCTION__.rt_object_allocate        0x0800df2e   Data          19  lto-llvm-434951.o(.rodata.str1.1)
    .L__FUNCTION__.rt_mb_create              0x0800df41   Data          13  lto-llvm-434951.o(.rodata.str1.1)
    .L__FUNCTION__.rt_sem_create             0x0800df4e   Data          14  lto-llvm-434951.o(.rodata.str1.1)
    .L__FUNCTION__.rt_event_create           0x0800df5c   Data          16  lto-llvm-434951.o(.rodata.str1.1)
    .L__FUNCTION__.rt_mutex_create           0x0800df6c   Data          16  lto-llvm-434951.o(.rodata.str1.1)
    .L__FUNCTION__.rt_thread_delete          0x0800df7c   Data          17  lto-llvm-434951.o(.rodata.str1.1)
    .L__FUNCTION__.rt_object_delete          0x0800df8d   Data          17  lto-llvm-434951.o(.rodata.str1.1)
    .L__FUNCTION__.rt_thread_idle_excute     0x0800df9e   Data          22  lto-llvm-434951.o(.rodata.str1.1)
    .L.str.9                                 0x0800dfb4   Data           9  lto-llvm-434951.o(.rodata.str1.1)
    .L__FUNCTION__.rt_thread_detach          0x0800dfbd   Data          17  lto-llvm-434951.o(.rodata.str1.1)
    .L__FUNCTION__.rt_timer_detach           0x0800dfce   Data          16  lto-llvm-434951.o(.rodata.str1.1)
    .L__FUNCTION__.rt_object_detach          0x0800dfde   Data          17  lto-llvm-434951.o(.rodata.str1.1)
    .L__FUNCTION__._rt_scheduler_stack_check 0x0800dfef   Data          26  lto-llvm-434951.o(.rodata.str1.1)
    .L.str.1.370                             0x0800e009   Data          15  lto-llvm-434951.o(.rodata.str1.1)
    .L.str.11.80                             0x0800e018   Data           7  lto-llvm-434951.o(.rodata.str1.1)
    .L.str.31                                0x0800e01f   Data           8  lto-llvm-434951.o(.rodata.str1.1)
    .L.str.6.354                             0x0800e027   Data          12  lto-llvm-434951.o(.rodata.str1.1)
    .L__FUNCTION__.rt_thread_control         0x0800e033   Data          18  lto-llvm-434951.o(.rodata.str1.1)
    .L__FUNCTION__.rt_timer_control          0x0800e045   Data          17  lto-llvm-434951.o(.rodata.str1.1)
    .L.str.369                               0x0800e056   Data          14  lto-llvm-434951.o(.rodata.str1.1)
    .L.str.401                               0x0800e064   Data          10  lto-llvm-434951.o(.rodata.str1.1)
    .L.str.3.151                             0x0800e06e   Data           5  lto-llvm-434951.o(.rodata.str1.1)
    .L.str.3.215                             0x0800e073   Data           5  lto-llvm-434951.o(.rodata.str1.1)
    .L__FUNCTION__.rt_thread_sleep           0x0800e078   Data          16  lto-llvm-434951.o(.rodata.str1.1)
    .L__FUNCTION__.rt_timer_stop             0x0800e088   Data          14  lto-llvm-434951.o(.rodata.str1.1)
    .L.str.7.71                              0x0800e096   Data           5  lto-llvm-434951.o(.rodata.str1.1)
    .L__FUNCTION__.rt_thread_startup         0x0800e09b   Data          18  lto-llvm-434951.o(.rodata.str1.1)
    .L__FUNCTION__.rt_ringbuffer_getchar     0x0800e0ad   Data          22  lto-llvm-434951.o(.rodata.str1.1)
    .L.str.1.330                             0x0800e0c3   Data          60  lto-llvm-434951.o(.rodata.str1.1)
    .L.str.352                               0x0800e0ff   Data          11  lto-llvm-434951.o(.rodata.str1.1)
    .L.str.5.349                             0x0800e104   Data           6  lto-llvm-434951.o(.rodata.str1.1)
    .L.str.1.383                             0x0800e10a   Data          13  lto-llvm-434951.o(.rodata.str1.1)
    .L.str.17.224                            0x0800e117   Data          30  lto-llvm-434951.o(.rodata.str1.1)
    .L.str.148                               0x0800e135   Data          14  lto-llvm-434951.o(.rodata.str1.1)
    .L.str.13.89                             0x0800e143   Data           5  lto-llvm-434951.o(.rodata.str1.1)
    .L.str.396                               0x0800e145   Data           3  lto-llvm-434951.o(.rodata.str1.1)
    .L__FUNCTION__.plug_holes                0x0800e148   Data          11  lto-llvm-434951.o(.rodata.str1.1)
    .L.str.2.371                             0x0800e153   Data          12  lto-llvm-434951.o(.rodata.str1.1)
    .L.str.1.259                             0x0800e15f   Data          14  lto-llvm-434951.o(.rodata.str1.1)
    .L__FUNCTION__.rt_object_is_systemobject 0x0800e16d   Data          26  lto-llvm-434951.o(.rodata.str1.1)
    .L__FUNCTION__.rt_mb_send_wait           0x0800e187   Data          16  lto-llvm-434951.o(.rodata.str1.1)
    .L__FUNCTION__._rt_thread_init           0x0800e197   Data          16  lto-llvm-434951.o(.rodata.str1.1)
    .L__FUNCTION__.rt_thread_init            0x0800e198   Data          15  lto-llvm-434951.o(.rodata.str1.1)
    .L__FUNCTION__.rt_sem_init               0x0800e1a7   Data          12  lto-llvm-434951.o(.rodata.str1.1)
    .L__FUNCTION__.rt_application_init       0x0800e1b3   Data          20  lto-llvm-434951.o(.rodata.str1.1)
    .L__FUNCTION__.rt_system_heap_init       0x0800e1c7   Data          20  lto-llvm-434951.o(.rodata.str1.1)
    .L__FUNCTION__.rt_ringbuffer_init        0x0800e1db   Data          19  lto-llvm-434951.o(.rodata.str1.1)
    .L__FUNCTION__.rt_timer_init             0x0800e1ee   Data          14  lto-llvm-434951.o(.rodata.str1.1)
    .L__FUNCTION__.rt_object_init            0x0800e1fc   Data          15  lto-llvm-434951.o(.rodata.str1.1)
    .L.str.13.174                            0x0800e20b   Data          67  lto-llvm-434951.o(.rodata.str1.1)
    .L.str.386                               0x0800e24e   Data          10  lto-llvm-434951.o(.rodata.str1.1)
    .L.str.382                               0x0800e258   Data          10  lto-llvm-434951.o(.rodata.str1.1)
    .L.str.17                                0x0800e25c   Data           6  lto-llvm-434951.o(.rodata.str1.1)
    .L__FUNCTION__.rt_timer_start            0x0800e262   Data          15  lto-llvm-434951.o(.rodata.str1.1)
    .L__FUNCTION__.rt_thread_timeout         0x0800e271   Data          18  lto-llvm-434951.o(.rodata.str1.1)
    .L__FUNCTION__.rt_ringbuffer_put         0x0800e283   Data          18  lto-llvm-434951.o(.rodata.str1.1)
    .L__FUNCTION__.rt_mb_recv                0x0800e295   Data          11  lto-llvm-434951.o(.rodata.str1.1)
    .L__FUNCTION__.rt_event_recv             0x0800e2a0   Data          14  lto-llvm-434951.o(.rodata.str1.1)
    .L.str.9.170                             0x0800e2ae   Data          67  lto-llvm-434951.o(.rodata.str1.1)
    .L.str.22                                0x0800e2f1   Data           6  lto-llvm-434951.o(.rodata.str1.1)
    .L.str.17.178                            0x0800e2f7   Data          66  lto-llvm-434951.o(.rodata.str1.1)
    .L.str.26                                0x0800e339   Data           8  lto-llvm-434951.o(.rodata.str1.1)
    .L.str.12.81                             0x0800e341   Data           5  lto-llvm-434951.o(.rodata.str1.1)
    __tagsym$$used.23                        0x0800e348   Number         0  lto-llvm-434951.o(.rti_fn.0)
    __tagsym$$used.24                        0x0800e350   Number         0  lto-llvm-434951.o(.rti_fn.0.end)
    __tagsym$$used.0                         0x0800e358   Number         0  lto-llvm-434951.o(.rti_fn.1)
    __tagsym$$used.25                        0x0800e360   Number         0  lto-llvm-434951.o(.rti_fn.1.end)
    __tagsym$$used.22                        0x0800e368   Number         0  lto-llvm-434951.o(.rti_fn.6)
    __tagsym$$used.26                        0x0800e370   Number         0  lto-llvm-434951.o(.rti_fn.6.end)
    __tagsym$$used.1                         0x0800e378   Number         0  lto-llvm-434951.o(FSymTab)
    __tagsym$$used.2                         0x0800e384   Number         0  lto-llvm-434951.o(FSymTab)
    __tagsym$$used.3                         0x0800e390   Number         0  lto-llvm-434951.o(FSymTab)
    __tagsym$$used.4                         0x0800e39c   Number         0  lto-llvm-434951.o(FSymTab)
    __tagsym$$used.5                         0x0800e3a8   Number         0  lto-llvm-434951.o(FSymTab)
    __tagsym$$used.6                         0x0800e3b4   Number         0  lto-llvm-434951.o(FSymTab)
    __tagsym$$used.7                         0x0800e3c0   Number         0  lto-llvm-434951.o(FSymTab)
    __tagsym$$used.8                         0x0800e3cc   Number         0  lto-llvm-434951.o(FSymTab)
    __tagsym$$used.9                         0x0800e3d8   Number         0  lto-llvm-434951.o(FSymTab)
    __tagsym$$used.10                        0x0800e3e4   Number         0  lto-llvm-434951.o(FSymTab)
    __tagsym$$used.11                        0x0800e3f0   Number         0  lto-llvm-434951.o(FSymTab)
    __tagsym$$used.12                        0x0800e3fc   Number         0  lto-llvm-434951.o(FSymTab)
    __tagsym$$used.13                        0x0800e408   Number         0  lto-llvm-434951.o(FSymTab)
    __tagsym$$used.14                        0x0800e414   Number         0  lto-llvm-434951.o(FSymTab)
    __tagsym$$used.15                        0x0800e420   Number         0  lto-llvm-434951.o(FSymTab)
    __tagsym$$used.16                        0x0800e42c   Number         0  lto-llvm-434951.o(FSymTab)
    __tagsym$$used.17                        0x0800e438   Number         0  lto-llvm-434951.o(FSymTab)
    __tagsym$$used.18                        0x0800e444   Number         0  lto-llvm-434951.o(FSymTab)
    __tagsym$$used.19                        0x0800e450   Number         0  lto-llvm-434951.o(FSymTab)
    __tagsym$$used.20                        0x0800e45c   Number         0  lto-llvm-434951.o(FSymTab)
    __tagsym$$used.21                        0x0800e468   Number         0  lto-llvm-434951.o(FSymTab)
    __tagsym$$used.27                        0x0800e474   Number         0  lto-llvm-434951.o(FSymTab)
    .init_array                              0x0800e4a4   Section        0  cpp_init.o(.init_array)
    SystemCoreClock                          0x20000000   Data           4  lto-llvm-434951.o(.data)
    [Anonymous Symbol]                       0x20000000   Section        0  lto-llvm-434951.o(.data)
    rt_object_container                      0x20000004   Data         112  lto-llvm-434951.o(.data)
    ad7490                                   0x20000074   Data          48  lto-llvm-434951.o(.data)
    key_state                                0x200000a4   Data           4  lto-llvm-434951.o(.data)
    huart1                                   0x200000a8   Data          76  lto-llvm-434951.o(.bss)
    [Anonymous Symbol]                       0x200000a8   Section        0  lto-llvm-434951.o(.bss)
    usart1                                   0x200000f4   Data         176  lto-llvm-434951.o(.bss)
    hdma_usart1_tx                           0x200001a4   Data         100  lto-llvm-434951.o(.bss)
    hdma_usart1_rx                           0x20000208   Data         100  lto-llvm-434951.o(.bss)
    huart2                                   0x2000026c   Data          76  lto-llvm-434951.o(.bss)
    hi2c1                                    0x200002b8   Data          92  lto-llvm-434951.o(.bss)
    hspi1                                    0x20000314   Data          92  lto-llvm-434951.o(.bss)
    hdma_spi1_rx                             0x20000370   Data         100  lto-llvm-434951.o(.bss)
    hdma_spi1_tx                             0x200003d4   Data         100  lto-llvm-434951.o(.bss)
    hdma_usart2_rx                           0x20000438   Data         100  lto-llvm-434951.o(.bss)
    hdma_usart2_tx                           0x2000049c   Data         100  lto-llvm-434951.o(.bss)
    htim1                                    0x20000500   Data         104  lto-llvm-434951.o(.bss)
    uwTick                                   0x20000568   Data           4  lto-llvm-434951.o(.bss)
    rt_heap                                  0x2000056c   Data       40960  lto-llvm-434951.o(.bss)
    _syscall_table_begin                     0x2000a56c   Data           4  lto-llvm-434951.o(.bss)
    _syscall_table_end                       0x2000a570   Data           4  lto-llvm-434951.o(.bss)
    shell                                    0x2000a574   Data           4  lto-llvm-434951.o(.bss)
    finsh_get_prompt.finsh_prompt            0x2000a578   Data         129  lto-llvm-434951.o(.bss)
    rt_tick                                  0x2000a608   Data           4  lto-llvm-434951.o(.bss)
    idle_hook_list                           0x2000a60c   Data          16  lto-llvm-434951.o(.bss)
    idle                                     0x2000a61c   Data         144  lto-llvm-434951.o(.bss)
    rt_thread_stack                          0x2000a6ac   Data         256  lto-llvm-434951.o(.bss)
    rt_interrupt_nest                        0x2000a7ac   Data           1  lto-llvm-434951.o(.bss)
    rt_kprintf.rt_log_buf                    0x2000a7ad   Data         128  lto-llvm-434951.o(.bss)
    mem_size_aligned                         0x2000a830   Data           4  lto-llvm-434951.o(.bss)
    used_mem                                 0x2000a834   Data           4  lto-llvm-434951.o(.bss)
    max_mem                                  0x2000a838   Data           4  lto-llvm-434951.o(.bss)
    heap_ptr                                 0x2000a83c   Data           4  lto-llvm-434951.o(.bss)
    heap_end                                 0x2000a840   Data           4  lto-llvm-434951.o(.bss)
    heap_sem                                 0x2000a844   Data          40  lto-llvm-434951.o(.bss)
    lfree                                    0x2000a86c   Data           4  lto-llvm-434951.o(.bss)
    rt_current_thread                        0x2000a870   Data           4  lto-llvm-434951.o(.bss)
    rt_thread_priority_table                 0x2000a874   Data         256  lto-llvm-434951.o(.bss)
    rt_thread_ready_priority_group           0x2000a974   Data           4  lto-llvm-434951.o(.bss)
    rt_thread_defunct                        0x2000a978   Data           8  lto-llvm-434951.o(.bss)
    rt_scheduler_lock_nest                   0x2000a980   Data           2  lto-llvm-434951.o(.bss)
    rt_soft_timer_list                       0x2000a984   Data           8  lto-llvm-434951.o(.bss)
    rt_timer_list                            0x2000a98c   Data           8  lto-llvm-434951.o(.bss)
    rt_timer_start.random_nr                 0x2000a994   Data           4  lto-llvm-434951.o(.bss)
    soft_timer_status                        0x2000a998   Data           1  lto-llvm-434951.o(.bss)
    timer_thread                             0x2000a99c   Data         144  lto-llvm-434951.o(.bss)
    timer_thread_stack                       0x2000aa2c   Data         512  lto-llvm-434951.o(.bss)
    timer_sta                                0x2000ac2c   Data           1  lto-llvm-434951.o(.bss)
    stop_timer                               0x2000ac30   Data           4  lto-llvm-434951.o(.bss)
    test_thread                              0x2000ac34   Data           4  lto-llvm-434951.o(.bss)
    sub_thread_control                       0x2000ac38   Data           4  lto-llvm-434951.o(.bss)
    s_nOffset                                0x2000ac3c   Data           4  lto-llvm-434951.o(.bss)
    s_nCycleCounts.362                       0x2000ac40   Data           4  lto-llvm-434951.o(.bss)
    s_lSystemClockCounts                     0x2000ac48   Data           8  lto-llvm-434951.o(.bss)
    serv_ad7490_fetcher                      0x2000ac50   Data           4  lto-llvm-434951.o(.bss)
    serv_ad7490_sem                          0x2000ac54   Data           4  lto-llvm-434951.o(.bss)
    serv_ad_mailbox                          0x2000ac58   Data           4  lto-llvm-434951.o(.bss)
    internal_buffer                          0x2000ac5c   Data          32  lto-llvm-434951.o(.bss)
    data_buffer                              0x2000ac7c   Data         256  lto-llvm-434951.o(.bss)
    value_tmp                                0x2000ad80   Data         128  lto-llvm-434951.o(.bss)
    value_his                                0x2000ae00   Data         128  lto-llvm-434951.o(.bss)
    ad7490_lock                              0x2000ae80   Data           4  lto-llvm-434951.o(.bss)
    ad7490_rb                                0x2000ae84   Data          12  lto-llvm-434951.o(.bss)
    serv_key_listener                        0x2000ae90   Data           4  lto-llvm-434951.o(.bss)
    key_event                                0x2000ae94   Data           4  lto-llvm-434951.o(.bss)
    key_tmp                                  0x2000ae98   Data           1  lto-llvm-434951.o(.bss)
    key_sta                                  0x2000ae99   Data           1  lto-llvm-434951.o(.bss)
    key_his                                  0x2000ae9a   Data           1  lto-llvm-434951.o(.bss)
    serv_led_sign_event                      0x2000ae9c   Data           4  lto-llvm-434951.o(.bss)
    strtmp                                   0x2000aea0   Data         128  lto-llvm-434951.o(.bss)
    buffer                                   0x2000af20   Data         128  lto-llvm-434951.o(.bss)
    STACK                                    0x2000afa0   Section     1024  startup_stm32f401xe.o(STACK)

    Global Symbols

    Symbol Name                              Value     Ov Type        Size  Object(Section)

    BuildAttributes$$THM_ISAv4$E$P$D$K$B$S$7EM$VFPi3$EXTD16$VFPS$VFMA$PE$A:L22UL41UL21$X:L11$S22US41US21$IEEE1$IW$~IW$USESV6$~STKCKD$USESV7$WCHAR32$ENUMINT$~SHL$OSPACE$ROPI$IEEEF$EBA8$MICROLIB$REQ8$PRES8$EABIv2 0x00000000   Number         0  anon$$obj.o ABSOLUTE
    __cxa_finalize                            - Undefined Weak Reference
    __decompress                              - Undefined Weak Reference
    _clock_init                               - Undefined Weak Reference
    _microlib_exit                            - Undefined Weak Reference
    __Vectors_Size                           0x00000194   Number         0  startup_stm32f401xe.o ABSOLUTE
    __Vectors                                0x08000000   Data           4  startup_stm32f401xe.o(RESET)
    __Vectors_End                            0x08000194   Data           0  startup_stm32f401xe.o(RESET)
    __main                                   0x08000195   Thumb Code     0  entry.o(.ARM.Collect$$$$00000000)
    _main_stk                                0x08000195   Thumb Code     0  entry2.o(.ARM.Collect$$$$00000001)
    _main_scatterload                        0x08000199   Thumb Code     0  entry5.o(.ARM.Collect$$$$00000004)
    __main_after_scatterload                 0x0800019d   Thumb Code     0  entry5.o(.ARM.Collect$$$$00000004)
    _main_clock                              0x0800019d   Thumb Code     0  entry7b.o(.ARM.Collect$$$$00000008)
    _main_cpp_init$empty                     0x0800019d   Thumb Code     0  entry8a.o(.ARM.Collect$$$$00000009)
    _main_cpp_init                           0x080001a1   Thumb Code     0  entry8b.o(.ARM.Collect$$$$0000000A)
    _main_init                               0x080001a1   Thumb Code     0  entry9a.o(.ARM.Collect$$$$0000000B)
    __rt_final_cpp                           0x080001a9   Thumb Code     0  entry10a.o(.ARM.Collect$$$$0000000D)
    __rt_final_exit                          0x080001a9   Thumb Code     0  entry11a.o(.ARM.Collect$$$$0000000F)
    rt_hw_interrupt_disable                  0x080001ad   Thumb Code     8  context_rvds.o(.text)
    rt_hw_interrupt_enable                   0x080001b5   Thumb Code     6  context_rvds.o(.text)
    rt_hw_context_switch                     0x080001bb   Thumb Code    32  context_rvds.o(.text)
    rt_hw_context_switch_interrupt           0x080001bb   Thumb Code     0  context_rvds.o(.text)
    PendSV_Handler                           0x080001db   Thumb Code   108  context_rvds.o(.text)
    rt_hw_context_switch_to                  0x08000247   Thumb Code    68  context_rvds.o(.text)
    rt_hw_interrupt_thread_switch            0x0800028b   Thumb Code     2  context_rvds.o(.text)
    HardFault_Handler                        0x0800028d   Thumb Code    56  context_rvds.o(.text)
    SysTick_Handler                          0x080002e1   Thumb Code    18  systick_wrapper_ual.o(.text)
    __ensure_systick_wrapper                 0x080002fd   Thumb Code     4  systick_wrapper_ual.o(.text)
    Reset_Handler                            0x08000301   Thumb Code     8  startup_stm32f401xe.o(.text)
    SVC_Handler                              0x08000313   Thumb Code     2  startup_stm32f401xe.o(.text)
    ADC_IRQHandler                           0x0800031b   Thumb Code     0  startup_stm32f401xe.o(.text)
    DMA1_Stream0_IRQHandler                  0x0800031b   Thumb Code     0  startup_stm32f401xe.o(.text)
    DMA1_Stream1_IRQHandler                  0x0800031b   Thumb Code     0  startup_stm32f401xe.o(.text)
    DMA1_Stream2_IRQHandler                  0x0800031b   Thumb Code     0  startup_stm32f401xe.o(.text)
    DMA1_Stream3_IRQHandler                  0x0800031b   Thumb Code     0  startup_stm32f401xe.o(.text)
    DMA1_Stream4_IRQHandler                  0x0800031b   Thumb Code     0  startup_stm32f401xe.o(.text)
    DMA1_Stream7_IRQHandler                  0x0800031b   Thumb Code     0  startup_stm32f401xe.o(.text)
    DMA2_Stream1_IRQHandler                  0x0800031b   Thumb Code     0  startup_stm32f401xe.o(.text)
    DMA2_Stream4_IRQHandler                  0x0800031b   Thumb Code     0  startup_stm32f401xe.o(.text)
    DMA2_Stream5_IRQHandler                  0x0800031b   Thumb Code     0  startup_stm32f401xe.o(.text)
    DMA2_Stream6_IRQHandler                  0x0800031b   Thumb Code     0  startup_stm32f401xe.o(.text)
    EXTI0_IRQHandler                         0x0800031b   Thumb Code     0  startup_stm32f401xe.o(.text)
    EXTI15_10_IRQHandler                     0x0800031b   Thumb Code     0  startup_stm32f401xe.o(.text)
    EXTI1_IRQHandler                         0x0800031b   Thumb Code     0  startup_stm32f401xe.o(.text)
    EXTI2_IRQHandler                         0x0800031b   Thumb Code     0  startup_stm32f401xe.o(.text)
    EXTI3_IRQHandler                         0x0800031b   Thumb Code     0  startup_stm32f401xe.o(.text)
    EXTI4_IRQHandler                         0x0800031b   Thumb Code     0  startup_stm32f401xe.o(.text)
    EXTI9_5_IRQHandler                       0x0800031b   Thumb Code     0  startup_stm32f401xe.o(.text)
    FLASH_IRQHandler                         0x0800031b   Thumb Code     0  startup_stm32f401xe.o(.text)
    FPU_IRQHandler                           0x0800031b   Thumb Code     0  startup_stm32f401xe.o(.text)
    I2C1_ER_IRQHandler                       0x0800031b   Thumb Code     0  startup_stm32f401xe.o(.text)
    I2C1_EV_IRQHandler                       0x0800031b   Thumb Code     0  startup_stm32f401xe.o(.text)
    I2C2_ER_IRQHandler                       0x0800031b   Thumb Code     0  startup_stm32f401xe.o(.text)
    I2C2_EV_IRQHandler                       0x0800031b   Thumb Code     0  startup_stm32f401xe.o(.text)
    I2C3_ER_IRQHandler                       0x0800031b   Thumb Code     0  startup_stm32f401xe.o(.text)
    I2C3_EV_IRQHandler                       0x0800031b   Thumb Code     0  startup_stm32f401xe.o(.text)
    OTG_FS_IRQHandler                        0x0800031b   Thumb Code     0  startup_stm32f401xe.o(.text)
    OTG_FS_WKUP_IRQHandler                   0x0800031b   Thumb Code     0  startup_stm32f401xe.o(.text)
    PVD_IRQHandler                           0x0800031b   Thumb Code     0  startup_stm32f401xe.o(.text)
    RCC_IRQHandler                           0x0800031b   Thumb Code     0  startup_stm32f401xe.o(.text)
    RTC_Alarm_IRQHandler                     0x0800031b   Thumb Code     0  startup_stm32f401xe.o(.text)
    RTC_WKUP_IRQHandler                      0x0800031b   Thumb Code     0  startup_stm32f401xe.o(.text)
    SDIO_IRQHandler                          0x0800031b   Thumb Code     0  startup_stm32f401xe.o(.text)
    SPI2_IRQHandler                          0x0800031b   Thumb Code     0  startup_stm32f401xe.o(.text)
    SPI3_IRQHandler                          0x0800031b   Thumb Code     0  startup_stm32f401xe.o(.text)
    SPI4_IRQHandler                          0x0800031b   Thumb Code     0  startup_stm32f401xe.o(.text)
    TAMP_STAMP_IRQHandler                    0x0800031b   Thumb Code     0  startup_stm32f401xe.o(.text)
    TIM1_BRK_TIM9_IRQHandler                 0x0800031b   Thumb Code     0  startup_stm32f401xe.o(.text)
    TIM1_CC_IRQHandler                       0x0800031b   Thumb Code     0  startup_stm32f401xe.o(.text)
    TIM1_TRG_COM_TIM11_IRQHandler            0x0800031b   Thumb Code     0  startup_stm32f401xe.o(.text)
    TIM2_IRQHandler                          0x0800031b   Thumb Code     0  startup_stm32f401xe.o(.text)
    TIM3_IRQHandler                          0x0800031b   Thumb Code     0  startup_stm32f401xe.o(.text)
    TIM4_IRQHandler                          0x0800031b   Thumb Code     0  startup_stm32f401xe.o(.text)
    TIM5_IRQHandler                          0x0800031b   Thumb Code     0  startup_stm32f401xe.o(.text)
    USART2_IRQHandler                        0x0800031b   Thumb Code     0  startup_stm32f401xe.o(.text)
    USART6_IRQHandler                        0x0800031b   Thumb Code     0  startup_stm32f401xe.o(.text)
    WWDG_IRQHandler                          0x0800031b   Thumb Code     0  startup_stm32f401xe.o(.text)
    strcat                                   0x08000325   Thumb Code    24  strcat.o(.text)
    strlen                                   0x0800033d   Thumb Code    14  strlen.o(.text)
    strcpy                                   0x0800034b   Thumb Code    18  strcpy.o(.text)
    strncmp                                  0x0800035d   Thumb Code    30  strncmp.o(.text)
    __scatterload                            0x0800037d   Thumb Code    28  init.o(.text)
    __scatterload_rt2                        0x0800037d   Thumb Code     0  init.o(.text)
    __aeabi_uldivmod                         0x080003a1   Thumb Code    98  uldiv.o(.text)
    __aeabi_memcpy                           0x08000403   Thumb Code    36  memcpya.o(.text)
    __aeabi_memcpy4                          0x08000403   Thumb Code     0  memcpya.o(.text)
    __aeabi_memcpy8                          0x08000403   Thumb Code     0  memcpya.o(.text)
    __aeabi_memset                           0x08000427   Thumb Code    14  memseta.o(.text)
    __aeabi_memset4                          0x08000427   Thumb Code     0  memseta.o(.text)
    __aeabi_memset8                          0x08000427   Thumb Code     0  memseta.o(.text)
    __aeabi_memclr                           0x08000435   Thumb Code     4  memseta.o(.text)
    __aeabi_memclr4                          0x08000435   Thumb Code     0  memseta.o(.text)
    __aeabi_memclr8                          0x08000435   Thumb Code     0  memseta.o(.text)
    _memset$wrapper                          0x08000439   Thumb Code    18  memseta.o(.text)
    __cpp_initialize__aeabi_                 0x0800044d   Thumb Code    24  cpp_init.o(.text)
    __aeabi_dadd                             0x0800046d   Thumb Code   322  dadd.o(.text)
    __aeabi_dsub                             0x080005af   Thumb Code     6  dadd.o(.text)
    __aeabi_drsub                            0x080005b5   Thumb Code     6  dadd.o(.text)
    __aeabi_dmul                             0x080005bb   Thumb Code   228  dmul.o(.text)
    __aeabi_dcmple                           0x0800069f   Thumb Code    54  dcmple.o(.text)
    __aeabi_dcmpge                           0x080006d5   Thumb Code    54  dcmpge.o(.text)
    __aeabi_i2d                              0x0800070b   Thumb Code    34  dflti.o(.text)
    __aeabi_ui2d                             0x0800072d   Thumb Code    26  dfltui.o(.text)
    __aeabi_d2iz                             0x08000747   Thumb Code    62  dfixi.o(.text)
    __aeabi_llsl                             0x08000785   Thumb Code    30  llshl.o(.text)
    _ll_shift_l                              0x08000785   Thumb Code     0  llshl.o(.text)
    __aeabi_llsr                             0x080007a3   Thumb Code    32  llushr.o(.text)
    _ll_ushift_r                             0x080007a3   Thumb Code     0  llushr.o(.text)
    __aeabi_lasr                             0x080007c3   Thumb Code    36  llsshr.o(.text)
    _ll_sshift_r                             0x080007c3   Thumb Code     0  llsshr.o(.text)
    __I$use$fp                               0x080007e7   Thumb Code     0  iusefp.o(.text)
    _double_round                            0x080007e7   Thumb Code    30  depilogue.o(.text)
    _double_epilogue                         0x08000805   Thumb Code   156  depilogue.o(.text)
    main                                     0x080008a1   Thumb Code    10  lto-llvm-434951.o(.text.$Sub$$main)
    BusFault_Handler                         0x080008ad   Thumb Code     4  lto-llvm-434951.o(.text.BusFault_Handler)
    DMA1_Stream5_IRQHandler                  0x080008b1   Thumb Code    16  lto-llvm-434951.o(.text.DMA1_Stream5_IRQHandler)
    DMA1_Stream6_IRQHandler                  0x080008c1   Thumb Code    16  lto-llvm-434951.o(.text.DMA1_Stream6_IRQHandler)
    DMA2_Stream0_IRQHandler                  0x080008d1   Thumb Code    16  lto-llvm-434951.o(.text.DMA2_Stream0_IRQHandler)
    DMA2_Stream2_IRQHandler                  0x080008e1   Thumb Code    16  lto-llvm-434951.o(.text.DMA2_Stream2_IRQHandler)
    DMA2_Stream3_IRQHandler                  0x080008f1   Thumb Code    16  lto-llvm-434951.o(.text.DMA2_Stream3_IRQHandler)
    DMA2_Stream7_IRQHandler                  0x08000901   Thumb Code    16  lto-llvm-434951.o(.text.DMA2_Stream7_IRQHandler)
    DebugMon_Handler                         0x08000a8d   Thumb Code     2  lto-llvm-434951.o(.text.DebugMon_Handler)
    MemManage_Handler                        0x080040d9   Thumb Code     4  lto-llvm-434951.o(.text.MemManage_Handler)
    NMI_Handler                              0x080040dd   Thumb Code     4  lto-llvm-434951.o(.text.NMI_Handler)
    SPI1_IRQHandler                          0x08004145   Thumb Code    16  lto-llvm-434951.o(.text.SPI1_IRQHandler)
    $Super$$SysTick_Handler                  0x08004441   Thumb Code    16  lto-llvm-434951.o(.text.SysTick_Handler)
    SystemInit                               0x08004631   Thumb Code    18  lto-llvm-434951.o(.text.SystemInit)
    TIM1_UP_TIM10_IRQHandler                 0x08004645   Thumb Code    16  lto-llvm-434951.o(.text.TIM1_UP_TIM10_IRQHandler)
    USART1_IRQHandler                        0x08004fa1   Thumb Code    86  lto-llvm-434951.o(.text.USART1_IRQHandler)
    UsageFault_Handler                       0x08004ff9   Thumb Code     4  lto-llvm-434951.o(.text.UsageFault_Handler)
    $Super$$main                             0x080071c9   Thumb Code    14  lto-llvm-434951.o(.text.main)
    rt_hw_hard_fault_exception               0x08008491   Thumb Code   358  lto-llvm-434951.o(.text.rt_hw_hard_fault_exception)
    user_code_insert_to_systick_handler      0x0800ca1d   Thumb Code    58  lto-llvm-434951.o(.text.user_code_insert_to_systick_handler)
    __scatterload_copy                       0x0800ca63   Thumb Code    14  handlers.o(i.__scatterload_copy)
    __scatterload_null                       0x0800ca71   Thumb Code     2  handlers.o(i.__scatterload_null)
    __scatterload_zeroinit                   0x0800ca73   Thumb Code    14  handlers.o(i.__scatterload_zeroinit)
    __rt_init_desc_rti_start                 0x0800e348   Data           8  lto-llvm-434951.o(.rti_fn.0)
    __rt_init_desc_rti_board_start           0x0800e350   Data           8  lto-llvm-434951.o(.rti_fn.0.end)
    __rt_init_desc_hw_init                   0x0800e358   Data           8  lto-llvm-434951.o(.rti_fn.1)
    __rt_init_desc_rti_board_end             0x0800e360   Data           8  lto-llvm-434951.o(.rti_fn.1.end)
    __rt_init_desc_finsh_system_init         0x0800e368   Data           8  lto-llvm-434951.o(.rti_fn.6)
    __rt_init_desc_rti_end                   0x0800e370   Data           8  lto-llvm-434951.o(.rti_fn.6.end)
    FSymTab$$Base                            0x0800e378   Number         0  lto-llvm-434951.o(FSymTab)
    __fsym_hello                             0x0800e378   Data          12  lto-llvm-434951.o(FSymTab)
    __fsym_version                           0x0800e384   Data          12  lto-llvm-434951.o(FSymTab)
    __fsym___cmd_version                     0x0800e390   Data          12  lto-llvm-434951.o(FSymTab)
    __fsym_list_thread                       0x0800e39c   Data          12  lto-llvm-434951.o(FSymTab)
    __fsym___cmd_list_thread                 0x0800e3a8   Data          12  lto-llvm-434951.o(FSymTab)
    __fsym_list_sem                          0x0800e3b4   Data          12  lto-llvm-434951.o(FSymTab)
    __fsym___cmd_list_sem                    0x0800e3c0   Data          12  lto-llvm-434951.o(FSymTab)
    __fsym_list_event                        0x0800e3cc   Data          12  lto-llvm-434951.o(FSymTab)
    __fsym___cmd_list_event                  0x0800e3d8   Data          12  lto-llvm-434951.o(FSymTab)
    __fsym_list_mutex                        0x0800e3e4   Data          12  lto-llvm-434951.o(FSymTab)
    __fsym___cmd_list_mutex                  0x0800e3f0   Data          12  lto-llvm-434951.o(FSymTab)
    __fsym_list_mailbox                      0x0800e3fc   Data          12  lto-llvm-434951.o(FSymTab)
    __fsym___cmd_list_mailbox                0x0800e408   Data          12  lto-llvm-434951.o(FSymTab)
    __fsym_list_mempool                      0x0800e414   Data          12  lto-llvm-434951.o(FSymTab)
    __fsym___cmd_list_mempool                0x0800e420   Data          12  lto-llvm-434951.o(FSymTab)
    __fsym_list_timer                        0x0800e42c   Data          12  lto-llvm-434951.o(FSymTab)
    __fsym___cmd_list_timer                  0x0800e438   Data          12  lto-llvm-434951.o(FSymTab)
    __fsym_list                              0x0800e444   Data          12  lto-llvm-434951.o(FSymTab)
    __fsym___cmd_help                        0x0800e450   Data          12  lto-llvm-434951.o(FSymTab)
    __fsym___cmd_ps                          0x0800e45c   Data          12  lto-llvm-434951.o(FSymTab)
    __fsym___cmd_free                        0x0800e468   Data          12  lto-llvm-434951.o(FSymTab)
    __fsym_list_mem                          0x0800e474   Data          12  lto-llvm-434951.o(FSymTab)
    FSymTab$$Limit                           0x0800e480   Number         0  lto-llvm-434951.o(FSymTab)
    Region$$Table$$Base                      0x0800e480   Number         0  anon$$obj.o(Region$$Table)
    Region$$Table$$Limit                     0x0800e4a0   Number         0  anon$$obj.o(Region$$Table)
    SHT$$INIT_ARRAY$$Base                    0x0800e4a0   Number         0  lto-llvm-434951.o(.init_array.255)
    SHT$$INIT_ARRAY$$Limit                   0x0800e4a4   Number         0  cpp_init.o(.init_array)
    rt_interrupt_from_thread                 0x2000a5fc   Data           4  lto-llvm-434951.o(.bss)
    rt_interrupt_to_thread                   0x2000a600   Data           4  lto-llvm-434951.o(.bss)
    rt_thread_switch_interrupt_flag          0x2000a604   Data           4  lto-llvm-434951.o(.bss)
    __initial_sp                             0x2000b3a0   Data           0  startup_stm32f401xe.o(STACK)



==============================================================================

Memory Map of the image

  Image Entry point : 0x08000195

  Load Region LR_IROM1 (Base: 0x08000000, Size: 0x0000e550, Max: 0x00080000, ABSOLUTE)

    Execution Region ER_IROM1 (Base: 0x08000000, Size: 0x0000e4a4, Max: 0x00080000, ABSOLUTE)

    Base Addr    Size         Type   Attr      Idx    E Section Name        Object

    0x08000000   0x00000194   Data   RO           70    RESET               startup_stm32f401xe.o
    0x08000194   0x00000000   Code   RO           75  * .ARM.Collect$$$$00000000  mc_w.l(entry.o)
    0x08000194   0x00000004   Code   RO           88    .ARM.Collect$$$$00000001  mc_w.l(entry2.o)
    0x08000198   0x00000004   Code   RO           91    .ARM.Collect$$$$00000004  mc_w.l(entry5.o)
    0x0800019c   0x00000000   Code   RO           93    .ARM.Collect$$$$00000008  mc_w.l(entry7b.o)
    0x0800019c   0x00000004   Code   RO           94    .ARM.Collect$$$$00000009  mc_w.l(entry8a.o)
    0x080001a0   0x00000000   Code   RO           95    .ARM.Collect$$$$0000000A  mc_w.l(entry8b.o)
    0x080001a0   0x00000008   Code   RO           96    .ARM.Collect$$$$0000000B  mc_w.l(entry9a.o)
    0x080001a8   0x00000000   Code   RO           98    .ARM.Collect$$$$0000000D  mc_w.l(entry10a.o)
    0x080001a8   0x00000000   Code   RO          100    .ARM.Collect$$$$0000000F  mc_w.l(entry11a.o)
    0x080001a8   0x00000004   Code   RO           89    .ARM.Collect$$$$00002712  mc_w.l(entry2.o)
    0x080001ac   0x00000134   Code   RO           58    .text               context_rvds.o
    0x080002e0   0x00000020   Code   RO           64    .text               systick_wrapper_ual.o
    0x08000300   0x00000024   Code   RO           71    .text               startup_stm32f401xe.o
    0x08000324   0x00000018   Code   RO           78    .text               mc_w.l(strcat.o)
    0x0800033c   0x0000000e   Code   RO           82    .text               mc_w.l(strlen.o)
    0x0800034a   0x00000012   Code   RO           84    .text               mc_w.l(strcpy.o)
    0x0800035c   0x0000001e   Code   RO           86    .text               mc_w.l(strncmp.o)
    0x0800037a   0x00000002   PAD
    0x0800037c   0x00000024   Code   RO          102    .text               mc_w.l(init.o)
    0x080003a0   0x00000062   Code   RO          763    .text               mc_w.l(uldiv.o)
    0x08000402   0x00000024   Code   RO          765    .text               mc_w.l(memcpya.o)
    0x08000426   0x00000024   Code   RO          767    .text               mc_w.l(memseta.o)
    0x0800044a   0x00000002   PAD
    0x0800044c   0x00000020   Code   RO          774    .text               mc_w.l(cpp_init.o)
    0x0800046c   0x0000014e   Code   RO          776    .text               mf_w.l(dadd.o)
    0x080005ba   0x000000e4   Code   RO          778    .text               mf_w.l(dmul.o)
    0x0800069e   0x00000036   Code   RO          780    .text               mf_w.l(dcmple.o)
    0x080006d4   0x00000036   Code   RO          782    .text               mf_w.l(dcmpge.o)
    0x0800070a   0x00000022   Code   RO          784    .text               mf_w.l(dflti.o)
    0x0800072c   0x0000001a   Code   RO          786    .text               mf_w.l(dfltui.o)
    0x08000746   0x0000003e   Code   RO          788    .text               mf_w.l(dfixi.o)
    0x08000784   0x0000001e   Code   RO          790    .text               mc_w.l(llshl.o)
    0x080007a2   0x00000020   Code   RO          792    .text               mc_w.l(llushr.o)
    0x080007c2   0x00000024   Code   RO          794    .text               mc_w.l(llsshr.o)
    0x080007e6   0x00000000   Code   RO          796    .text               mc_w.l(iusefp.o)
    0x080007e6   0x000000ba   Code   RO          801    .text               mf_w.l(depilogue.o)
    0x080008a0   0x0000000a   Code   RO          425    .text.$Sub$$main    lto-llvm-434951.o
    0x080008aa   0x00000002   PAD
    0x080008ac   0x00000004   Code   RO          141    .text.BusFault_Handler  lto-llvm-434951.o
    0x080008b0   0x00000010   Code   RO          147    .text.DMA1_Stream5_IRQHandler  lto-llvm-434951.o
    0x080008c0   0x00000010   Code   RO          149    .text.DMA1_Stream6_IRQHandler  lto-llvm-434951.o
    0x080008d0   0x00000010   Code   RO          155    .text.DMA2_Stream0_IRQHandler  lto-llvm-434951.o
    0x080008e0   0x00000010   Code   RO          157    .text.DMA2_Stream2_IRQHandler  lto-llvm-434951.o
    0x080008f0   0x00000010   Code   RO          159    .text.DMA2_Stream3_IRQHandler  lto-llvm-434951.o
    0x08000900   0x00000010   Code   RO          161    .text.DMA2_Stream7_IRQHandler  lto-llvm-434951.o
    0x08000910   0x00000056   Code   RO          197    .text.DMA_CalcBaseAndBitshift  lto-llvm-434951.o
    0x08000966   0x00000002   PAD
    0x08000968   0x000000d2   Code   RO          195    .text.DMA_CheckFifoParam  lto-llvm-434951.o
    0x08000a3a   0x00000002   PAD
    0x08000a3c   0x00000050   Code   RO          199    .text.DMA_SetConfig  lto-llvm-434951.o
    0x08000a8c   0x00000002   Code   RO          145    .text.DebugMon_Handler  lto-llvm-434951.o
    0x08000a8e   0x00000002   PAD
    0x08000a90   0x0000000e   Code   RO          121    .text.Error_Handler  lto-llvm-434951.o
    0x08000a9e   0x00000002   PAD
    0x08000aa0   0x000000d8   Code   RO          203    .text.HAL_DMA_Abort  lto-llvm-434951.o
    0x08000b78   0x0000003a   Code   RO          205    .text.HAL_DMA_Abort_IT  lto-llvm-434951.o
    0x08000bb2   0x00000002   PAD
    0x08000bb4   0x0000031c   Code   RO          207    .text.HAL_DMA_IRQHandler  lto-llvm-434951.o
    0x08000ed0   0x0000015a   Code   RO          193    .text.HAL_DMA_Init  lto-llvm-434951.o
    0x0800102a   0x00000002   PAD
    0x0800102c   0x000000ac   Code   RO          201    .text.HAL_DMA_Start_IT  lto-llvm-434951.o
    0x080010d8   0x00000354   Code   RO          209    .text.HAL_GPIO_Init  lto-llvm-434951.o
    0x0800142c   0x00000030   Code   RO          211    .text.HAL_GPIO_ReadPin  lto-llvm-434951.o
    0x0800145c   0x0000002a   Code   RO          213    .text.HAL_GPIO_WritePin  lto-llvm-434951.o
    0x08001486   0x00000002   PAD
    0x08001488   0x0000000c   Code   RO          171    .text.HAL_GetTick   lto-llvm-434951.o
    0x08001494   0x00000268   Code   RO          215    .text.HAL_I2C_Init  lto-llvm-434951.o
    0x080016fc   0x00000090   Code   RO          129    .text.HAL_I2C_MspInit  lto-llvm-434951.o
    0x0800178c   0x00000010   Code   RO          169    .text.HAL_IncTick   lto-llvm-434951.o
    0x0800179c   0x00000032   Code   RO          167    .text.HAL_Init      lto-llvm-434951.o
    0x080017ce   0x00000002   PAD
    0x080017d0   0x0000009c   Code   RO          135    .text.HAL_InitTick  lto-llvm-434951.o
    0x0800186c   0x0000004a   Code   RO          127    .text.HAL_MspInit   lto-llvm-434951.o
    0x080018b6   0x00000002   PAD
    0x080018b8   0x00000010   Code   RO          185    .text.HAL_NVIC_EnableIRQ  lto-llvm-434951.o
    0x080018c8   0x0000002c   Code   RO          177    .text.HAL_NVIC_SetPriority  lto-llvm-434951.o
    0x080018f4   0x00000012   Code   RO          173    .text.HAL_NVIC_SetPriorityGrouping  lto-llvm-434951.o
    0x08001906   0x00000002   PAD
    0x08001908   0x0000024a   Code   RO          219    .text.HAL_RCC_ClockConfig  lto-llvm-434951.o
    0x08001b52   0x00000002   PAD
    0x08001b54   0x00000054   Code   RO          229    .text.HAL_RCC_GetClockConfig  lto-llvm-434951.o
    0x08001ba8   0x0000000c   Code   RO          223    .text.HAL_RCC_GetHCLKFreq  lto-llvm-434951.o
    0x08001bb4   0x00000022   Code   RO          225    .text.HAL_RCC_GetPCLK1Freq  lto-llvm-434951.o
    0x08001bd6   0x00000002   PAD
    0x08001bd8   0x00000022   Code   RO          227    .text.HAL_RCC_GetPCLK2Freq  lto-llvm-434951.o
    0x08001bfa   0x00000002   PAD
    0x08001bfc   0x000000de   Code   RO          221    .text.HAL_RCC_GetSysClockFreq  lto-llvm-434951.o
    0x08001cda   0x00000002   PAD
    0x08001cdc   0x00000692   Code   RO          217    .text.HAL_RCC_OscConfig  lto-llvm-434951.o
    0x0800236e   0x00000002   PAD
    0x08002370   0x00000008   Code   RO          245    .text.HAL_SPI_ErrorCallback  lto-llvm-434951.o
    0x08002378   0x0000022c   Code   RO          247    .text.HAL_SPI_IRQHandler  lto-llvm-434951.o
    0x080025a4   0x000000fa   Code   RO          231    .text.HAL_SPI_Init  lto-llvm-434951.o
    0x0800269e   0x00000002   PAD
    0x080026a0   0x0000014a   Code   RO          131    .text.HAL_SPI_MspInit  lto-llvm-434951.o
    0x080027ea   0x00000002   PAD
    0x080027ec   0x0000020c   Code   RO          239    .text.HAL_SPI_Receive  lto-llvm-434951.o
    0x080029f8   0x00000268   Code   RO          233    .text.HAL_SPI_Transmit  lto-llvm-434951.o
    0x08002c60   0x00000332   Code   RO          241    .text.HAL_SPI_TransmitReceive  lto-llvm-434951.o
    0x08002f92   0x00000002   PAD
    0x08002f94   0x00000010   Code   RO          189    .text.HAL_SYSTICK_Config  lto-llvm-434951.o
    0x08002fa4   0x00000008   Code   RO          271    .text.HAL_TIMEx_BreakCallback  lto-llvm-434951.o
    0x08002fac   0x00000008   Code   RO          269    .text.HAL_TIMEx_CommutCallback  lto-llvm-434951.o
    0x08002fb4   0x00000084   Code   RO          251    .text.HAL_TIM_Base_Init  lto-llvm-434951.o
    0x08003038   0x00000008   Code   RO          253    .text.HAL_TIM_Base_MspInit  lto-llvm-434951.o
    0x08003040   0x000000d0   Code   RO          257    .text.HAL_TIM_Base_Start_IT  lto-llvm-434951.o
    0x08003110   0x00000008   Code   RO          261    .text.HAL_TIM_IC_CaptureCallback  lto-llvm-434951.o
    0x08003118   0x0000027a   Code   RO          263    .text.HAL_TIM_IRQHandler  lto-llvm-434951.o
    0x08003392   0x00000002   PAD
    0x08003394   0x00000008   Code   RO          265    .text.HAL_TIM_OC_DelayElapsedCallback  lto-llvm-434951.o
    0x0800339c   0x00000008   Code   RO          259    .text.HAL_TIM_PWM_PulseFinishedCallback  lto-llvm-434951.o
    0x080033a4   0x00000020   Code   RO          125    .text.HAL_TIM_PeriodElapsedCallback  lto-llvm-434951.o
    0x080033c4   0x00000008   Code   RO          267    .text.HAL_TIM_TriggerCallback  lto-llvm-434951.o
    0x080033cc   0x000000d2   Code   RO          309    .text.HAL_UARTEx_ReceiveToIdle_DMA  lto-llvm-434951.o
    0x0800349e   0x00000002   PAD
    0x080034a0   0x00000052   Code   RO          723    .text.HAL_UARTEx_RxEventCallback  lto-llvm-434951.o
    0x080034f2   0x00000002   PAD
    0x080034f4   0x00000008   Code   RO          293    .text.HAL_UART_ErrorCallback  lto-llvm-434951.o
    0x080034fc   0x0000041a   Code   RO          311    .text.HAL_UART_IRQHandler  lto-llvm-434951.o
    0x08003916   0x00000002   PAD
    0x08003918   0x0000008a   Code   RO          273    .text.HAL_UART_Init  lto-llvm-434951.o
    0x080039a2   0x00000002   PAD
    0x080039a4   0x0000026e   Code   RO          133    .text.HAL_UART_MspInit  lto-llvm-434951.o
    0x08003c12   0x00000002   PAD
    0x08003c14   0x00000008   Code   RO          307    .text.HAL_UART_RxCpltCallback  lto-llvm-434951.o
    0x08003c1c   0x00000008   Code   RO          305    .text.HAL_UART_RxHalfCpltCallback  lto-llvm-434951.o
    0x08003c24   0x00000130   Code   RO          277    .text.HAL_UART_Transmit  lto-llvm-434951.o
    0x08003d54   0x000000fc   Code   RO          281    .text.HAL_UART_Transmit_DMA  lto-llvm-434951.o
    0x08003e50   0x00000008   Code   RO          297    .text.HAL_UART_TxCpltCallback  lto-llvm-434951.o
    0x08003e58   0x00000008   Code   RO          295    .text.HAL_UART_TxHalfCpltCallback  lto-llvm-434951.o
    0x08003e60   0x000000a0   Code   RO          111    .text.MX_DMA_Init   lto-llvm-434951.o
    0x08003f00   0x000000dc   Code   RO          109    .text.MX_GPIO_Init  lto-llvm-434951.o
    0x08003fdc   0x00000040   Code   RO          117    .text.MX_I2C1_Init  lto-llvm-434951.o
    0x0800401c   0x0000004c   Code   RO          113    .text.MX_SPI1_Init  lto-llvm-434951.o
    0x08004068   0x00000038   Code   RO          115    .text.MX_USART1_UART_Init  lto-llvm-434951.o
    0x080040a0   0x00000038   Code   RO          119    .text.MX_USART2_UART_Init  lto-llvm-434951.o
    0x080040d8   0x00000004   Code   RO          139    .text.MemManage_Handler  lto-llvm-434951.o
    0x080040dc   0x00000004   Code   RO          137    .text.NMI_Handler   lto-llvm-434951.o
    0x080040e0   0x00000062   Code   RO          181    .text.NVIC_EncodePriority  lto-llvm-434951.o
    0x08004142   0x00000002   PAD
    0x08004144   0x00000010   Code   RO          153    .text.SPI1_IRQHandler  lto-llvm-434951.o
    0x08004154   0x00000020   Code   RO          249    .text.SPI_DMAAbortOnError  lto-llvm-434951.o
    0x08004174   0x000000c8   Code   RO          243    .text.SPI_EndRxTransaction  lto-llvm-434951.o
    0x0800423c   0x0000009a   Code   RO          235    .text.SPI_EndRxTxTransaction  lto-llvm-434951.o
    0x080042d6   0x00000002   PAD
    0x080042d8   0x00000116   Code   RO          237    .text.SPI_WaitFlagStateUntilTimeout  lto-llvm-434951.o
    0x080043ee   0x00000002   PAD
    0x080043f0   0x00000050   Code   RO          191    .text.SysTick_Config  lto-llvm-434951.o
    0x08004440   0x00000010   Code   RO          325    .text.SysTick_Handler  lto-llvm-434951.o
    0x08004450   0x000000b4   Code   RO          107    .text.SystemClock_Config  lto-llvm-434951.o
    0x08004504   0x0000012a   Code   RO          165    .text.SystemCoreClockUpdate  lto-llvm-434951.o
    0x0800462e   0x00000002   PAD
    0x08004630   0x00000012   Code   RO          163    .text.SystemInit    lto-llvm-434951.o
    0x08004642   0x00000002   PAD
    0x08004644   0x00000010   Code   RO          151    .text.TIM1_UP_TIM10_IRQHandler  lto-llvm-434951.o
    0x08004654   0x0000013a   Code   RO          255    .text.TIM_Base_SetConfig  lto-llvm-434951.o
    0x0800478e   0x00000002   PAD
    0x08004790   0x00000020   Code   RO          315    .text.UART_DMAAbortOnError  lto-llvm-434951.o
    0x080047b0   0x00000078   Code   RO          287    .text.UART_DMAError  lto-llvm-434951.o
    0x08004828   0x000000ec   Code   RO          301    .text.UART_DMAReceiveCplt  lto-llvm-434951.o
    0x08004914   0x0000002e   Code   RO          303    .text.UART_DMARxHalfCplt  lto-llvm-434951.o
    0x08004942   0x00000002   PAD
    0x08004944   0x0000007a   Code   RO          283    .text.UART_DMATransmitCplt  lto-llvm-434951.o
    0x080049be   0x00000002   PAD
    0x080049c0   0x00000016   Code   RO          285    .text.UART_DMATxHalfCplt  lto-llvm-434951.o
    0x080049d6   0x00000002   PAD
    0x080049d8   0x00000092   Code   RO          291    .text.UART_EndRxTransfer  lto-llvm-434951.o
    0x08004a6a   0x00000002   PAD
    0x08004a6c   0x00000022   Code   RO          319    .text.UART_EndTransmit_IT  lto-llvm-434951.o
    0x08004a8e   0x00000002   PAD
    0x08004a90   0x00000034   Code   RO          289    .text.UART_EndTxTransfer  lto-llvm-434951.o
    0x08004ac4   0x00000156   Code   RO          313    .text.UART_Receive_IT  lto-llvm-434951.o
    0x08004c1a   0x00000002   PAD
    0x08004c1c   0x0000012c   Code   RO          275    .text.UART_SetConfig  lto-llvm-434951.o
    0x08004d48   0x00000108   Code   RO          299    .text.UART_Start_Receive_DMA  lto-llvm-434951.o
    0x08004e50   0x0000008a   Code   RO          317    .text.UART_Transmit_IT  lto-llvm-434951.o
    0x08004eda   0x00000002   PAD
    0x08004edc   0x000000c2   Code   RO          279    .text.UART_WaitOnFlagUntilTimeout  lto-llvm-434951.o
    0x08004f9e   0x00000002   PAD
    0x08004fa0   0x00000056   Code   RO          721    .text.USART1_IRQHandler  lto-llvm-434951.o
    0x08004ff6   0x00000002   PAD
    0x08004ff8   0x00000004   Code   RO          143    .text.UsageFault_Handler  lto-llvm-434951.o
    0x08004ffc   0x0000002c   Code   RO          187    .text.__NVIC_EnableIRQ  lto-llvm-434951.o
    0x08005028   0x00000010   Code   RO          179    .text.__NVIC_GetPriorityGrouping  lto-llvm-434951.o
    0x08005038   0x0000003a   Code   RO          183    .text.__NVIC_SetPriority  lto-llvm-434951.o
    0x08005072   0x00000002   PAD
    0x08005074   0x0000003c   Code   RO          175    .text.__NVIC_SetPriorityGrouping  lto-llvm-434951.o
    0x080050b0   0x00000008   Code   RO          681    .text.__perf_counter_init  lto-llvm-434951.o
    0x080050b8   0x0000007e   Code   RO          519    .text.__rt_ffs      lto-llvm-434951.o
    0x08005136   0x00000002   PAD
    0x08005138   0x0000001c   Code   RO          437    .text._has_defunct_thread  lto-llvm-434951.o
    0x08005154   0x000000f2   Code   RO          371    .text._msh_exec_cmd  lto-llvm-434951.o
    0x08005246   0x00000002   PAD
    0x08005248   0x00000094   Code   RO          561    .text._rt_scheduler_stack_check  lto-llvm-434951.o
    0x080052dc   0x000000d6   Code   RO          585    .text._rt_thread_init  lto-llvm-434951.o
    0x080053b2   0x00000002   PAD
    0x080053b4   0x00000066   Code   RO          621    .text._rt_timer_init  lto-llvm-434951.o
    0x0800541a   0x00000002   PAD
    0x0800541c   0x00000030   Code   RO          627    .text._rt_timer_remove  lto-llvm-434951.o
    0x0800544c   0x0000002a   Code   RO          579    .text._thread_cleanup_execute  lto-llvm-434951.o
    0x08005476   0x00000002   PAD
    0x08005478   0x0000005c   Code   RO          655    .text.app_main_control_init  lto-llvm-434951.o
    0x080054d4   0x000000f6   Code   RO          659    .text.app_main_control_main  lto-llvm-434951.o
    0x080055ca   0x00000002   PAD
    0x080055cc   0x000000f4   Code   RO          401    .text.bus_fault_track  lto-llvm-434951.o
    0x080056c0   0x00000012   Code   RO          365    .text.cmd_free      lto-llvm-434951.o
    0x080056d2   0x00000002   PAD
    0x080056d4   0x00000012   Code   RO          363    .text.cmd_ps        lto-llvm-434951.o
    0x080056e6   0x00000002   PAD
    0x080056e8   0x0000003c   Code   RO          691    .text.delay_us      lto-llvm-434951.o
    0x08005724   0x0000004c   Code   RO          679    .text.dev_ad7490_decode_data  lto-llvm-434951.o
    0x08005770   0x0000009e   Code   RO          669    .text.dev_ad7490_fetch_data  lto-llvm-434951.o
    0x0800580e   0x00000002   PAD
    0x08005810   0x000000bc   Code   RO          675    .text.dev_ad7490_fetch_data_in_continuous_mode  lto-llvm-434951.o
    0x080058cc   0x000000a0   Code   RO          671    .text.dev_ad7490_fetch_data_in_independent_mode  lto-llvm-434951.o
    0x0800596c   0x000000be   Code   RO          673    .text.dev_ad7490_fetch_data_in_regular_scan_mode  lto-llvm-434951.o
    0x08005a2a   0x00000002   PAD
    0x08005a2c   0x00000194   Code   RO          667    .text.dev_ad7490_generate_control_seq  lto-llvm-434951.o
    0x08005bc0   0x0000006e   Code   RO          677    .text.dev_ad7490_power_up  lto-llvm-434951.o
    0x08005c2e   0x00000002   PAD
    0x08005c30   0x00000052   Code   RO          513    .text.divide        lto-llvm-434951.o
    0x08005c82   0x00000002   PAD
    0x08005c84   0x0000024a   Code   RO          729    .text.dma_io_construct  lto-llvm-434951.o
    0x08005ece   0x00000002   PAD
    0x08005ed0   0x00000030   Code   RO          735    .text.dma_io_echo   lto-llvm-434951.o
    0x08005f00   0x00000016   Code   RO          737    .text.dma_io_get_reclength  lto-llvm-434951.o
    0x08005f16   0x00000002   PAD
    0x08005f18   0x00000024   Code   RO          739    .text.dma_io_setRX_IT  lto-llvm-434951.o
    0x08005f3c   0x00000030   Code   RO          733    .text.dma_output    lto-llvm-434951.o
    0x08005f6c   0x00000068   Code   RO          731    .text.dma_printf    lto-llvm-434951.o
    0x08005fd4   0x00000066   Code   RO          389    .text.finsh_get_prompt  lto-llvm-434951.o
    0x0800603a   0x00000002   PAD
    0x0800603c   0x00000008   Code   RO          391    .text.finsh_getchar  lto-llvm-434951.o
    0x08006044   0x00000054   Code   RO          387    .text.finsh_set_prompt_mode  lto-llvm-434951.o
    0x08006098   0x00000032   Code   RO          383    .text.finsh_system_function_init  lto-llvm-434951.o
    0x080060ca   0x00000002   PAD
    0x080060cc   0x00000096   Code   RO          381    .text.finsh_system_init  lto-llvm-434951.o
    0x08006162   0x00000002   PAD
    0x08006164   0x00000496   Code   RO          385    .text.finsh_thread_entry  lto-llvm-434951.o
    0x080065fa   0x00000002   PAD
    0x080065fc   0x00000092   Code   RO          399    .text.hard_fault_track  lto-llvm-434951.o
    0x0800668e   0x00000002   PAD
    0x08006690   0x00000012   Code   RO          329    .text.hello         lto-llvm-434951.o
    0x080066a2   0x00000002   PAD
    0x080066a4   0x00000066   Code   RO          105    .text.hw_init       lto-llvm-434951.o
    0x0800670a   0x00000002   PAD
    0x0800670c   0x000000c6   Code   RO          683    .text.init_cycle_counter  lto-llvm-434951.o
    0x080067d2   0x00000002   PAD
    0x080067d4   0x0000006a   Code   RO          359    .text.list          lto-llvm-434951.o
    0x0800683e   0x00000002   PAD
    0x08006840   0x0000010c   Code   RO          349    .text.list_event    lto-llvm-434951.o
    0x0800694c   0x00000044   Code   RO          335    .text.list_find_init  lto-llvm-434951.o
    0x08006990   0x000000ce   Code   RO          339    .text.list_get_next  lto-llvm-434951.o
    0x08006a5e   0x00000002   PAD
    0x08006a60   0x00000122   Code   RO          353    .text.list_mailbox  lto-llvm-434951.o
    0x08006b82   0x00000002   PAD
    0x08006b84   0x00000046   Code   RO          523    .text.list_mem      lto-llvm-434951.o
    0x08006bca   0x00000002   PAD
    0x08006bcc   0x0000014c   Code   RO          355    .text.list_mempool  lto-llvm-434951.o
    0x08006d18   0x000000dc   Code   RO          351    .text.list_mutex    lto-llvm-434951.o
    0x08006df4   0x0000011a   Code   RO          341    .text.list_sem      lto-llvm-434951.o
    0x08006f0e   0x00000002   PAD
    0x08006f10   0x000001b6   Code   RO          333    .text.list_thread   lto-llvm-434951.o
    0x080070c6   0x00000002   PAD
    0x080070c8   0x00000100   Code   RO          357    .text.list_timer    lto-llvm-434951.o
    0x080071c8   0x0000000e   Code   RO          123    .text.main          lto-llvm-434951.o
    0x080071d6   0x00000002   PAD
    0x080071d8   0x00000012   Code   RO          431    .text.main_thread_entry  lto-llvm-434951.o
    0x080071ea   0x00000002   PAD
    0x080071ec   0x000000d4   Code   RO          403    .text.mem_manage_fault_track  lto-llvm-434951.o
    0x080072c0   0x000000d6   Code   RO          377    .text.msh_auto_complete  lto-llvm-434951.o
    0x08007396   0x00000002   PAD
    0x08007398   0x000000ae   Code   RO          369    .text.msh_exec      lto-llvm-434951.o
    0x08007446   0x00000002   PAD
    0x08007448   0x0000007e   Code   RO          373    .text.msh_get_cmd   lto-llvm-434951.o
    0x080074c6   0x00000002   PAD
    0x080074c8   0x0000007c   Code   RO          361    .text.msh_help      lto-llvm-434951.o
    0x08007544   0x000001bc   Code   RO          375    .text.msh_split     lto-llvm-434951.o
    0x08007700   0x00000024   Code   RO          337    .text.object_split  lto-llvm-434951.o
    0x08007724   0x00000158   Code   RO          531    .text.plug_holes    lto-llvm-434951.o
    0x0800787c   0x00000258   Code   RO          511    .text.print_number  lto-llvm-434951.o
    0x08007ad4   0x00000012   Code   RO          665    .text.release_muscle  lto-llvm-434951.o
    0x08007ae6   0x00000002   PAD
    0x08007ae8   0x00000050   Code   RO          429    .text.rt_application_init  lto-llvm-434951.o
    0x08007b38   0x00000036   Code   RO          521    .text.rt_assert_handler  lto-llvm-434951.o
    0x08007b6e   0x00000002   PAD
    0x08007b70   0x00000034   Code   RO          533    .text.rt_calloc     lto-llvm-434951.o
    0x08007ba4   0x00000054   Code   RO          421    .text.rt_components_board_init  lto-llvm-434951.o
    0x08007bf8   0x00000060   Code   RO          423    .text.rt_components_init  lto-llvm-434951.o
    0x08007c58   0x00000022   Code   RO          573    .text.rt_enter_critical  lto-llvm-434951.o
    0x08007c7a   0x00000002   PAD
    0x08007c7c   0x00000084   Code   RO          471    .text.rt_event_create  lto-llvm-434951.o
    0x08007d00   0x00000254   Code   RO          475    .text.rt_event_recv  lto-llvm-434951.o
    0x08007f54   0x00000160   Code   RO          473    .text.rt_event_send  lto-llvm-434951.o
    0x080080b4   0x00000056   Code   RO          575    .text.rt_exit_critical  lto-llvm-434951.o
    0x0800810a   0x00000002   PAD
    0x0800810c   0x000001da   Code   RO          529    .text.rt_free       lto-llvm-434951.o
    0x080082e6   0x00000002   PAD
    0x080082e8   0x00000036   Code   RO          327    .text.rt_hw_board_init  lto-llvm-434951.o
    0x0800831e   0x00000002   PAD
    0x08008320   0x00000030   Code   RO          727    .text.rt_hw_console_getchar  lto-llvm-434951.o
    0x08008350   0x0000013e   Code   RO          725    .text.rt_hw_console_output  lto-llvm-434951.o
    0x0800848e   0x00000002   PAD
    0x08008490   0x00000166   Code   RO          397    .text.rt_hw_hard_fault_exception  lto-llvm-434951.o
    0x080085f6   0x00000002   PAD
    0x080085f8   0x00000088   Code   RO          395    .text.rt_hw_stack_init  lto-llvm-434951.o
    0x08008680   0x0000002c   Code   RO          485    .text.rt_interrupt_enter  lto-llvm-434951.o
    0x080086ac   0x00000026   Code   RO          489    .text.rt_interrupt_get_nest  lto-llvm-434951.o
    0x080086d2   0x00000002   PAD
    0x080086d4   0x0000002c   Code   RO          487    .text.rt_interrupt_leave  lto-llvm-434951.o
    0x08008700   0x0000001c   Code   RO          463    .text.rt_ipc_list_resume  lto-llvm-434951.o
    0x0800871c   0x0000008e   Code   RO          457    .text.rt_ipc_list_suspend  lto-llvm-434951.o
    0x080087aa   0x00000002   PAD
    0x080087ac   0x00000012   Code   RO          447    .text.rt_ipc_object_init  lto-llvm-434951.o
    0x080087be   0x00000002   PAD
    0x080087c0   0x00000042   Code   RO          505    .text.rt_kprintf    lto-llvm-434951.o
    0x08008802   0x00000002   PAD
    0x08008804   0x00000010   Code   RO          449    .text.rt_list_init  lto-llvm-434951.o
    0x08008814   0x00000010   Code   RO          555    .text.rt_list_init.280  lto-llvm-434951.o
    0x08008824   0x00000010   Code   RO          587    .text.rt_list_init.300  lto-llvm-434951.o
    0x08008834   0x00000010   Code   RO          623    .text.rt_list_init.327  lto-llvm-434951.o
    0x08008844   0x00000026   Code   RO          539    .text.rt_list_insert_after.260  lto-llvm-434951.o
    0x0800886a   0x00000002   PAD
    0x0800886c   0x0000002e   Code   RO          581    .text.rt_list_insert_after.295  lto-llvm-434951.o
    0x0800889a   0x00000002   PAD
    0x0800889c   0x00000026   Code   RO          635    .text.rt_list_insert_after.337  lto-llvm-434951.o
    0x080088c2   0x00000002   PAD
    0x080088c4   0x00000026   Code   RO          459    .text.rt_list_insert_before  lto-llvm-434951.o
    0x080088ea   0x00000002   PAD
    0x080088ec   0x00000026   Code   RO          565    .text.rt_list_insert_before.288  lto-llvm-434951.o
    0x08008912   0x00000002   PAD
    0x08008914   0x00000026   Code   RO          607    .text.rt_list_insert_before.318  lto-llvm-434951.o
    0x0800893a   0x00000002   PAD
    0x0800893c   0x00000014   Code   RO          343    .text.rt_list_isempty  lto-llvm-434951.o
    0x08008950   0x00000014   Code   RO          451    .text.rt_list_isempty.164  lto-llvm-434951.o
    0x08008964   0x00000014   Code   RO          571    .text.rt_list_isempty.290  lto-llvm-434951.o
    0x08008978   0x00000014   Code   RO          643    .text.rt_list_isempty.344  lto-llvm-434951.o
    0x0800898c   0x0000002e   Code   RO          345    .text.rt_list_len   lto-llvm-434951.o
    0x080089ba   0x00000002   PAD
    0x080089bc   0x00000020   Code   RO          439    .text.rt_list_remove  lto-llvm-434951.o
    0x080089dc   0x00000020   Code   RO          543    .text.rt_list_remove.264  lto-llvm-434951.o
    0x080089fc   0x00000020   Code   RO          569    .text.rt_list_remove.289  lto-llvm-434951.o
    0x08008a1c   0x00000020   Code   RO          591    .text.rt_list_remove.304  lto-llvm-434951.o
    0x08008a3c   0x00000020   Code   RO          629    .text.rt_list_remove.332  lto-llvm-434951.o
    0x08008a5c   0x00000396   Code   RO          527    .text.rt_malloc     lto-llvm-434951.o
    0x08008df2   0x00000002   PAD
    0x08008df4   0x000000c8   Code   RO          477    .text.rt_mb_create  lto-llvm-434951.o
    0x08008ebc   0x00000238   Code   RO          483    .text.rt_mb_recv    lto-llvm-434951.o
    0x080090f4   0x00000014   Code   RO          481    .text.rt_mb_send    lto-llvm-434951.o
    0x08009108   0x0000023a   Code   RO          479    .text.rt_mb_send_wait  lto-llvm-434951.o
    0x08009342   0x00000002   PAD
    0x08009344   0x00000080   Code   RO          495    .text.rt_memmove    lto-llvm-434951.o
    0x080093c4   0x000000b0   Code   RO          491    .text.rt_memset     lto-llvm-434951.o
    0x08009474   0x000000a0   Code   RO          465    .text.rt_mutex_create  lto-llvm-434951.o
    0x08009514   0x000001f8   Code   RO          469    .text.rt_mutex_release  lto-llvm-434951.o
    0x0800970c   0x00000224   Code   RO          467    .text.rt_mutex_take  lto-llvm-434951.o
    0x08009930   0x000000d4   Code   RO          545    .text.rt_object_allocate  lto-llvm-434951.o
    0x08009a04   0x00000076   Code   RO          547    .text.rt_object_delete  lto-llvm-434951.o
    0x08009a7a   0x00000002   PAD
    0x08009a7c   0x0000004a   Code   RO          541    .text.rt_object_detach  lto-llvm-434951.o
    0x08009ac6   0x00000002   PAD
    0x08009ac8   0x00000050   Code   RO          535    .text.rt_object_get_information  lto-llvm-434951.o
    0x08009b18   0x00000032   Code   RO          551    .text.rt_object_get_type  lto-llvm-434951.o
    0x08009b4a   0x00000002   PAD
    0x08009b4c   0x000000c4   Code   RO          537    .text.rt_object_init  lto-llvm-434951.o
    0x08009c10   0x00000044   Code   RO          549    .text.rt_object_is_systemobject  lto-llvm-434951.o
    0x08009c54   0x0000006a   Code   RO          697    .text.rt_ringbuffer_data_len  lto-llvm-434951.o
    0x08009cbe   0x00000002   PAD
    0x08009cc0   0x00000090   Code   RO          701    .text.rt_ringbuffer_getchar  lto-llvm-434951.o
    0x08009d50   0x0000008a   Code   RO          693    .text.rt_ringbuffer_init  lto-llvm-434951.o
    0x08009dda   0x00000002   PAD
    0x08009ddc   0x0000011a   Code   RO          695    .text.rt_ringbuffer_put  lto-llvm-434951.o
    0x08009ef6   0x00000002   PAD
    0x08009ef8   0x00000040   Code   RO          699    .text.rt_ringbuffer_status  lto-llvm-434951.o
    0x08009f38   0x000000b6   Code   RO          559    .text.rt_schedule   lto-llvm-434951.o
    0x08009fee   0x00000002   PAD
    0x08009ff0   0x00000074   Code   RO          563    .text.rt_schedule_insert_thread  lto-llvm-434951.o
    0x0800a064   0x00000072   Code   RO          567    .text.rt_schedule_remove_thread  lto-llvm-434951.o
    0x0800a0d6   0x00000002   PAD
    0x0800a0d8   0x000000b4   Code   RO          453    .text.rt_sem_create  lto-llvm-434951.o
    0x0800a18c   0x00000070   Code   RO          445    .text.rt_sem_init   lto-llvm-434951.o
    0x0800a1fc   0x000000c0   Code   RO          461    .text.rt_sem_release  lto-llvm-434951.o
    0x0800a2bc   0x00000180   Code   RO          455    .text.rt_sem_take   lto-llvm-434951.o
    0x0800a43c   0x00000048   Code   RO          503    .text.rt_show_version  lto-llvm-434951.o
    0x0800a484   0x0000010c   Code   RO          647    .text.rt_soft_timer_check  lto-llvm-434951.o
    0x0800a590   0x0000003a   Code   RO          517    .text.rt_sprintf    lto-llvm-434951.o
    0x0800a5ca   0x00000002   PAD
    0x0800a5cc   0x0000005c   Code   RO          499    .text.rt_strncpy    lto-llvm-434951.o
    0x0800a628   0x00000134   Code   RO          525    .text.rt_system_heap_init  lto-llvm-434951.o
    0x0800a75c   0x00000064   Code   RO          553    .text.rt_system_scheduler_init  lto-llvm-434951.o
    0x0800a7c0   0x00000040   Code   RO          557    .text.rt_system_scheduler_start  lto-llvm-434951.o
    0x0800a800   0x00000030   Code   RO          649    .text.rt_system_timer_init  lto-llvm-434951.o
    0x0800a830   0x0000006e   Code   RO          651    .text.rt_system_timer_thread_init  lto-llvm-434951.o
    0x0800a89e   0x00000002   PAD
    0x0800a8a0   0x000000fa   Code   RO          617    .text.rt_thread_control  lto-llvm-434951.o
    0x0800a99a   0x00000002   PAD
    0x0800a99c   0x0000007a   Code   RO          601    .text.rt_thread_create  lto-llvm-434951.o
    0x0800aa16   0x00000002   PAD
    0x0800aa18   0x00000010   Code   RO          613    .text.rt_thread_delay  lto-llvm-434951.o
    0x0800aa28   0x000000d0   Code   RO          603    .text.rt_thread_delete  lto-llvm-434951.o
    0x0800aaf8   0x000000e6   Code   RO          599    .text.rt_thread_detach  lto-llvm-434951.o
    0x0800abde   0x00000002   PAD
    0x0800abe0   0x0000005e   Code   RO          577    .text.rt_thread_exit  lto-llvm-434951.o
    0x0800ac3e   0x00000002   PAD
    0x0800ac40   0x00000048   Code   RO          443    .text.rt_thread_idle_entry  lto-llvm-434951.o
    0x0800ac88   0x0000008c   Code   RO          435    .text.rt_thread_idle_excute  lto-llvm-434951.o
    0x0800ad14   0x00000046   Code   RO          441    .text.rt_thread_idle_init  lto-llvm-434951.o
    0x0800ad5a   0x00000002   PAD
    0x0800ad5c   0x00000066   Code   RO          433    .text.rt_thread_idle_sethook  lto-llvm-434951.o
    0x0800adc2   0x00000002   PAD
    0x0800adc4   0x00000092   Code   RO          583    .text.rt_thread_init  lto-llvm-434951.o
    0x0800ae56   0x00000002   PAD
    0x0800ae58   0x00000018   Code   RO          615    .text.rt_thread_mdelay  lto-llvm-434951.o
    0x0800ae70   0x000000a0   Code   RO          597    .text.rt_thread_resume  lto-llvm-434951.o
    0x0800af10   0x0000000c   Code   RO          593    .text.rt_thread_self  lto-llvm-434951.o
    0x0800af1c   0x00000096   Code   RO          609    .text.rt_thread_sleep  lto-llvm-434951.o
    0x0800afb2   0x00000002   PAD
    0x0800afb4   0x000000b0   Code   RO          595    .text.rt_thread_startup  lto-llvm-434951.o
    0x0800b064   0x000000a8   Code   RO          611    .text.rt_thread_suspend  lto-llvm-434951.o
    0x0800b10c   0x00000098   Code   RO          589    .text.rt_thread_timeout  lto-llvm-434951.o
    0x0800b1a4   0x00000054   Code   RO          653    .text.rt_thread_timer_entry  lto-llvm-434951.o
    0x0800b1f8   0x00000072   Code   RO          605    .text.rt_thread_yield  lto-llvm-434951.o
    0x0800b26a   0x00000002   PAD
    0x0800b26c   0x00000060   Code   RO          411    .text.rt_tick_from_millisecond  lto-llvm-434951.o
    0x0800b2cc   0x0000000c   Code   RO          407    .text.rt_tick_get   lto-llvm-434951.o
    0x0800b2d8   0x0000003c   Code   RO          409    .text.rt_tick_increase  lto-llvm-434951.o
    0x0800b314   0x000000ee   Code   RO          641    .text.rt_timer_check  lto-llvm-434951.o
    0x0800b402   0x00000002   PAD
    0x0800b404   0x000000bc   Code   RO          639    .text.rt_timer_control  lto-llvm-434951.o
    0x0800b4c0   0x0000005e   Code   RO          631    .text.rt_timer_create  lto-llvm-434951.o
    0x0800b51e   0x00000002   PAD
    0x0800b520   0x00000090   Code   RO          625    .text.rt_timer_detach  lto-llvm-434951.o
    0x0800b5b0   0x0000005c   Code   RO          619    .text.rt_timer_init  lto-llvm-434951.o
    0x0800b60c   0x00000040   Code   RO          645    .text.rt_timer_list_next_timeout  lto-llvm-434951.o
    0x0800b64c   0x00000220   Code   RO          633    .text.rt_timer_start  lto-llvm-434951.o
    0x0800b86c   0x0000008a   Code   RO          637    .text.rt_timer_stop  lto-llvm-434951.o
    0x0800b8f6   0x00000002   PAD
    0x0800b8f8   0x000005b8   Code   RO          507    .text.rt_vsnprintf  lto-llvm-434951.o
    0x0800beb0   0x0000001c   Code   RO          515    .text.rt_vsprintf   lto-llvm-434951.o
    0x0800becc   0x00000004   Code   RO          417    .text.rti_board_end  lto-llvm-434951.o
    0x0800bed0   0x00000004   Code   RO          415    .text.rti_board_start  lto-llvm-434951.o
    0x0800bed4   0x00000004   Code   RO          419    .text.rti_end       lto-llvm-434951.o
    0x0800bed8   0x00000004   Code   RO          413    .text.rti_start     lto-llvm-434951.o
    0x0800bedc   0x00000028   Code   RO          427    .text.rtthread_startup  lto-llvm-434951.o
    0x0800bf04   0x0000009e   Code   RO          703    .text.serv_ad7490_fetcher_init  lto-llvm-434951.o
    0x0800bfa2   0x00000006   PAD
    0x0800bfa8   0x000002c0   Code   RO          705    .text.serv_ad7490_fetcher_main  lto-llvm-434951.o
    0x0800c268   0x00000010   Code   RO          707    .text.serv_init     lto-llvm-434951.o
    0x0800c278   0x0000006c   Code   RO          709    .text.serv_key_listener_init  lto-llvm-434951.o
    0x0800c2e4   0x00000110   Code   RO          711    .text.serv_key_listener_main  lto-llvm-434951.o
    0x0800c3f4   0x00000036   Code   RO          719    .text.serv_led_sign_hw_init  lto-llvm-434951.o
    0x0800c42a   0x00000002   PAD
    0x0800c42c   0x00000002   Code   RO          715    .text.serv_led_sign_idle  lto-llvm-434951.o
    0x0800c42e   0x00000002   PAD
    0x0800c430   0x00000032   Code   RO          713    .text.serv_led_sign_init  lto-llvm-434951.o
    0x0800c462   0x00000002   PAD
    0x0800c464   0x00000020   Code   RO          717    .text.serv_led_sign_send_event  lto-llvm-434951.o
    0x0800c484   0x00000038   Code   RO          393    .text.shell_auto_complete  lto-llvm-434951.o
    0x0800c4bc   0x00000054   Code   RO          347    .text.show_wait_queue  lto-llvm-434951.o
    0x0800c510   0x00000038   Code   RO          509    .text.skip_atoi     lto-llvm-434951.o
    0x0800c548   0x00000074   Code   RO          685    .text.start_cycle_counter  lto-llvm-434951.o
    0x0800c5bc   0x000000a6   Code   RO          687    .text.stop_cycle_counter  lto-llvm-434951.o
    0x0800c662   0x00000002   PAD
    0x0800c664   0x00000050   Code   RO          379    .text.str_common    lto-llvm-434951.o
    0x0800c6b4   0x00000004   PAD
    0x0800c6b8   0x00000218   Code   RO          663    .text.sub_thread_control_entry  lto-llvm-434951.o
    0x0800c8d0   0x00000034   Code   RO          661    .text.sub_thread_control_init  lto-llvm-434951.o
    0x0800c904   0x0000002e   Code   RO          657    .text.timeout_entry  lto-llvm-434951.o
    0x0800c932   0x00000002   PAD
    0x0800c934   0x000000e8   Code   RO          405    .text.usage_fault_track  lto-llvm-434951.o
    0x0800ca1c   0x0000003a   Code   RO          689    .text.user_code_insert_to_systick_handler  lto-llvm-434951.o
    0x0800ca56   0x00000002   PAD
    0x0800ca58   0x0000000a   Code   RO          331    .text.version       lto-llvm-434951.o
    0x0800ca62   0x0000000e   Code   RO          805    i.__scatterload_copy  mc_w.l(handlers.o)
    0x0800ca70   0x00000002   Code   RO          806    i.__scatterload_null  mc_w.l(handlers.o)
    0x0800ca72   0x0000000e   Code   RO          807    i.__scatterload_zeroinit  mc_w.l(handlers.o)
    0x0800ca80   0x00000204   Data   RO          742    .rodata             lto-llvm-434951.o
    0x0800cc84   0x00000010   Data   RO          746    .rodata.cst16       lto-llvm-434951.o
    0x0800cc94   0x00000010   Data   RO          747    .rodata.cst8        lto-llvm-434951.o
    0x0800cca4   0x00000326   Data   RO          748    .rodata.name        lto-llvm-434951.o
    0x0800cfca   0x0000137c   Data   RO          750    .rodata.str1.1      lto-llvm-434951.o
    0x0800e346   0x00000002   PAD
    0x0800e348   0x00000008   Data   RO          752    .rti_fn.0           lto-llvm-434951.o
    0x0800e350   0x00000008   Data   RO          753    .rti_fn.0.end       lto-llvm-434951.o
    0x0800e358   0x00000008   Data   RO          743    .rti_fn.1           lto-llvm-434951.o
    0x0800e360   0x00000008   Data   RO          754    .rti_fn.1.end       lto-llvm-434951.o
    0x0800e368   0x00000008   Data   RO          751    .rti_fn.6           lto-llvm-434951.o
    0x0800e370   0x00000008   Data   RO          755    .rti_fn.6.end       lto-llvm-434951.o
    0x0800e378   0x00000108   Data   RO          749    FSymTab             lto-llvm-434951.o
    0x0800e480   0x00000020   Data   RO          804    Region$$Table       anon$$obj.o
    0x0800e4a0   0x00000004   Data   RO          756    .init_array.255     lto-llvm-434951.o
    0x0800e4a4   0x00000000   Data   RO          772    .init_array         mc_w.l(cpp_init.o)


    Execution Region RW_IRAM1 (Base: 0x20000000, Size: 0x0000b3a0, Max: 0x00018000, ABSOLUTE)

    Base Addr    Size         Type   Attr      Idx    E Section Name        Object

    0x20000000   0x000000a8   Data   RW          745    .data               lto-llvm-434951.o
    0x200000a8   0x0000aef8   Zero   RW          741    .bss                lto-llvm-434951.o
    0x2000afa0   0x00000400   Zero   RW           68    STACK               startup_stm32f401xe.o


==============================================================================

Image component sizes


      Code (inc. data)   RO Data    RW Data    ZI Data      Debug   Object Name

       308         28          0          0          0        944   context_rvds.o
     49346        238       6658        168      44792     155497   lto-llvm-434951.o
        36          8        404          0       1024        784   startup_stm32f401xe.o
        32         10          0          0          0        536   systick_wrapper_ual.o

    ----------------------------------------------------------------------
     49978        284       7096        168      45816     157761   Object Totals
         0          0         32          0          0          0   (incl. Generated)
       256          0          2          0          0          0   (incl. Padding)

    ----------------------------------------------------------------------

      Code (inc. data)   RO Data    RW Data    ZI Data      Debug   Library Member Name

        32          8          0          0          0         80   cpp_init.o
         0          0          0          0          0          0   entry.o
         0          0          0          0          0          0   entry10a.o
         0          0          0          0          0          0   entry11a.o
         8          4          0          0          0          0   entry2.o
         4          0          0          0          0          0   entry5.o
         0          0          0          0          0          0   entry7b.o
         4          0          0          0          0          0   entry8a.o
         0          0          0          0          0          0   entry8b.o
         8          4          0          0          0          0   entry9a.o
        30          0          0          0          0          0   handlers.o
        36          8          0          0          0         68   init.o
         0          0          0          0          0          0   iusefp.o
        30          0          0          0          0         68   llshl.o
        36          0          0          0          0         68   llsshr.o
        32          0          0          0          0         68   llushr.o
        36          0          0          0          0         68   memcpya.o
        36          0          0          0          0        108   memseta.o
        24          0          0          0          0         68   strcat.o
        18          0          0          0          0         68   strcpy.o
        14          0          0          0          0         68   strlen.o
        30          0          0          0          0         80   strncmp.o
        98          0          0          0          0         92   uldiv.o
       334          0          0          0          0        148   dadd.o
        54          0          0          0          0         80   dcmpge.o
        54          0          0          0          0         80   dcmple.o
       186          0          0          0          0        176   depilogue.o
        62          0          0          0          0         80   dfixi.o
        34          0          0          0          0         76   dflti.o
        26          0          0          0          0         76   dfltui.o
       228          0          0          0          0         96   dmul.o

    ----------------------------------------------------------------------
      1458         24          0          0          0       1716   Library Totals
         4          0          0          0          0          0   (incl. Padding)

    ----------------------------------------------------------------------

      Code (inc. data)   RO Data    RW Data    ZI Data      Debug   Library Name

       476         24          0          0          0        904   mc_w.l
       978          0          0          0          0        812   mf_w.l

    ----------------------------------------------------------------------
      1458         24          0          0          0       1716   Library Totals

    ----------------------------------------------------------------------

==============================================================================


      Code (inc. data)   RO Data    RW Data    ZI Data      Debug   

     51436        308       7096        168      45816     158597   Grand Totals
     51436        308       7096        168      45816     158597   ELF Image Totals
     51436        308       7096        168          0          0   ROM Totals

==============================================================================

    Total RO  Size (Code + RO Data)                58532 (  57.16kB)
    Total RW  Size (RW Data + ZI Data)             45984 (  44.91kB)
    Total ROM Size (Code + RO Data + RW Data)      58700 (  57.32kB)

==============================================================================

